TN:
SF:/home/ubuntu/node-lora-comms/node_modules/node-addon-api/napi-inl.h
FN:27,_ZN4Napi7detailsL10AttachDataINS_10ObjectWrapI9LoRaCommsE20AccessorCallbackDataIPFNS_5ValueERKNS_12CallbackInfoEEPFvS9_RKS6_EEEEE11napi_statusP10napi_env__P12napi_value__PT_PFvSJ_PvSO_ESO_
FN:27,_ZN4Napi7detailsL10AttachDataINS_10ObjectWrapI9LoRaCommsE20AccessorCallbackDataIMS3_FNS_5ValueERKNS_12CallbackInfoEEMS3_FvS9_RKS6_EEEEE11napi_statusP10napi_env__P12napi_value__PT_PFvSJ_PvSO_ESO_
FN:27,_ZN4Napi7detailsL10AttachDataINS_10ObjectWrapI9LoRaCommsE18MethodCallbackDataIMS3_FvRKNS_12CallbackInfoEEEEEE11napi_statusP10napi_env__P12napi_value__PT_PFvSE_PvSJ_ESJ_
FN:27,_ZN4Napi7detailsL10AttachDataINS_10ObjectWrapI9LoRaCommsE18MethodCallbackDataIPFvRKNS_12CallbackInfoEEEEEE11napi_statusP10napi_env__P12napi_value__PT_PFvSE_PvSJ_ESJ_
FN:27,_ZN4Napi7detailsL10AttachDataINS_10ObjectWrapI9LoRaCommsE18MethodCallbackDataIPFNS_5ValueERKNS_12CallbackInfoEEEEEE11napi_statusP10napi_env__P12napi_value__PT_PFvSF_PvSK_ESK_
FN:27,_ZN4Napi7detailsL10AttachDataINS_10ObjectWrapI9LoRaCommsE18MethodCallbackDataIMS3_FNS_5ValueERKNS_12CallbackInfoEEEEEE11napi_statusP10napi_env__P12napi_value__PT_PFvSF_PvSK_ESK_
FN:34,_ZZN4Napi7detailsL10AttachDataINS_10ObjectWrapI9LoRaCommsE18MethodCallbackDataIPFNS_5ValueERKNS_12CallbackInfoEEEEEE11napi_statusP10napi_env__P12napi_value__PT_PFvSF_PvSK_ESK_ENKUlSF_SK_SK_E_clESF_SK_SK_
FN:34,_ZZN4Napi7detailsL10AttachDataINS_10ObjectWrapI9LoRaCommsE20AccessorCallbackDataIPFNS_5ValueERKNS_12CallbackInfoEEPFvS9_RKS6_EEEEE11napi_statusP10napi_env__P12napi_value__PT_PFvSJ_PvSO_ESO_ENKUlSJ_SO_SO_E_clESJ_SO_SO_
FN:34,_ZZN4Napi7detailsL10AttachDataINS_10ObjectWrapI9LoRaCommsE20AccessorCallbackDataIMS3_FNS_5ValueERKNS_12CallbackInfoEEMS3_FvS9_RKS6_EEEEE11napi_statusP10napi_env__P12napi_value__PT_PFvSJ_PvSO_ESO_ENKUlSJ_SO_SO_E_clESJ_SO_SO_
FN:34,_ZZN4Napi7detailsL10AttachDataINS_10ObjectWrapI9LoRaCommsE18MethodCallbackDataIMS3_FNS_5ValueERKNS_12CallbackInfoEEEEEE11napi_statusP10napi_env__P12napi_value__PT_PFvSF_PvSK_ESK_ENKUlSF_SK_SK_E_clESF_SK_SK_
FN:34,_ZZN4Napi7detailsL10AttachDataINS_10ObjectWrapI9LoRaCommsE18MethodCallbackDataIPFvRKNS_12CallbackInfoEEEEEE11napi_statusP10napi_env__P12napi_value__PT_PFvSE_PvSJ_ESJ_ENKUlSE_SJ_SJ_E_clESE_SJ_SJ_
FN:34,_ZZN4Napi7detailsL10AttachDataINS_10ObjectWrapI9LoRaCommsE18MethodCallbackDataIMS3_FvRKNS_12CallbackInfoEEEEEE11napi_statusP10napi_env__P12napi_value__PT_PFvSE_PvSJ_ESJ_ENKUlSE_SJ_SJ_E_clESE_SJ_SJ_
FN:70,_ZN4Napi7details12WrapCallbackIZNS_10ObjectWrapI9LoRaCommsE13WrappedMethodIXadL_ZNS3_18GetLogErrorMessageERKNS_12CallbackInfoEEEEEP12napi_value__P10napi_env__P20napi_callback_info__EUlvE_EESA_T_
FN:70,_ZN4Napi7details12WrapCallbackIZNS_10ObjectWrapI9LoRaCommsE33InstanceVoidMethodCallbackWrapperEP10napi_env__P20napi_callback_info__EUlvE_EEP12napi_value__T_
FN:70,_ZN4Napi7details12WrapCallbackIZNS_10ObjectWrapI9LoRaCommsE13WrappedMethodIXadL_ZNS3_14SetLogWriteHWMERKNS_12CallbackInfoEEEEEP12napi_value__P10napi_env__P20napi_callback_info__EUlvE_EESA_T_
FN:70,_ZN4Napi7details12WrapCallbackIZNS_10ObjectWrapI9LoRaCommsE29InstanceMethodCallbackWrapperEP10napi_env__P20napi_callback_info__EUlvE_EEP12napi_value__T_
FN:70,_ZN4Napi7details12WrapCallbackIZNS_10ObjectWrapI9LoRaCommsE13WrappedMethodIXadL_ZNS3_20SetLogMaxMessageSizeERKNS_12CallbackInfoEEEEEP12napi_value__P10napi_env__P20napi_callback_info__EUlvE_EESA_T_
FN:70,_ZN4Napi7details12WrapCallbackIZNS_10ObjectWrapI9LoRaCommsE13WrappedMethodIXadL_ZNS3_6SendToERKNS_12CallbackInfoEEEEEP12napi_value__P10napi_env__P20napi_callback_info__EUlvE_EESA_T_
FN:70,_ZN4Napi7details12WrapCallbackIZNS_10ObjectWrapI9LoRaCommsE27StaticSetterCallbackWrapperEP10napi_env__P20napi_callback_info__EUlvE_EEP12napi_value__T_
FN:70,_ZN4Napi7details12WrapCallbackIZNS_10ObjectWrapI9LoRaCommsE13WrappedMethodIXadL_ZNS3_18SetLogWriteTimeoutERKNS_12CallbackInfoEEEEEP12napi_value__P10napi_env__P20napi_callback_info__EUlvE_EESA_T_
FN:70,_ZN4Napi7details12WrapCallbackIZNS_10ObjectWrapI9LoRaCommsE13WrappedMethodIXadL_ZNS3_4StopERKNS_12CallbackInfoEEEEEP12napi_value__P10napi_env__P20napi_callback_info__EUlvE_EESA_T_
FN:70,_ZN4Napi7details12WrapCallbackIZNS_10ObjectWrapI9LoRaCommsE13WrappedMethodIXadL_ZNS3_16SetGWSendTimeoutERKNS_12CallbackInfoEEEEEP12napi_value__P10napi_env__P20napi_callback_info__EUlvE_EESA_T_
FN:70,_ZN4Napi7details12WrapCallbackIZNS_10ObjectWrapI9LoRaCommsE29InstanceGetterCallbackWrapperEP10napi_env__P20napi_callback_info__EUlvE_EEP12napi_value__T_
FN:70,_ZN4Napi7details12WrapCallbackIZNS_10ObjectWrapI9LoRaCommsE13WrappedMethodIXadL_ZNS3_12ResetLoggingERKNS_12CallbackInfoEEEEEP12napi_value__P10napi_env__P20napi_callback_info__EUlvE_EESA_T_
FN:70,_ZN4Napi7details12WrapCallbackIZNS_11AsyncWorker14OnWorkCompleteENS_3EnvE11napi_statusEUlvE_EEP12napi_value__T_
FN:70,_ZN4Napi7details12WrapCallbackIZNS_10ObjectWrapI9LoRaCommsE13WrappedMethodIXadL_ZNS3_17GetLogInfoMessageERKNS_12CallbackInfoEEEEEP12napi_value__P10napi_env__P20napi_callback_info__EUlvE_EESA_T_
FN:70,_ZN4Napi7details12WrapCallbackIZNS_14RegisterModuleEP10napi_env__P12napi_value__PFNS_6ObjectENS_3EnvES6_EEUlvE_EES5_T_
FN:70,_ZN4Napi7details12WrapCallbackIZNS_10ObjectWrapI9LoRaCommsE27StaticMethodCallbackWrapperEP10napi_env__P20napi_callback_info__EUlvE_EEP12napi_value__T_
FN:70,_ZN4Napi7details12WrapCallbackIZNS_10ObjectWrapI9LoRaCommsE13WrappedMethodIXadL_ZNS3_16SetGWRecvTimeoutERKNS_12CallbackInfoEEEEEP12napi_value__P10napi_env__P20napi_callback_info__EUlvE_EESA_T_
FN:70,_ZN4Napi7details12WrapCallbackIZNS_10ObjectWrapI9LoRaCommsE13WrappedMethodIXadL_ZNS3_8RecvFromERKNS_12CallbackInfoEEEEEP12napi_value__P10napi_env__P20napi_callback_info__EUlvE_EESA_T_
FN:70,_ZN4Napi7details12WrapCallbackIZNS_10ObjectWrapI9LoRaCommsE13WrappedMethodIXadL_ZNS3_12StartLoggingERKNS_12CallbackInfoEEEEEP12napi_value__P10napi_env__P20napi_callback_info__EUlvE_EESA_T_
FN:70,_ZN4Napi7details12WrapCallbackIZNS_10ObjectWrapI9LoRaCommsE29InstanceSetterCallbackWrapperEP10napi_env__P20napi_callback_info__EUlvE_EEP12napi_value__T_
FN:70,_ZN4Napi7details12WrapCallbackIZNS_10ObjectWrapI9LoRaCommsE13WrappedMethodIXadL_ZNS3_11StopLoggingERKNS_12CallbackInfoEEEEEP12napi_value__P10napi_env__P20napi_callback_info__EUlvE_EESA_T_
FN:70,_ZN4Napi7details12WrapCallbackIZNS_10ObjectWrapI9LoRaCommsE27StaticGetterCallbackWrapperEP10napi_env__P20napi_callback_info__EUlvE_EEP12napi_value__T_
FN:70,_ZN4Napi7details12WrapCallbackIZNS_10ObjectWrapI9LoRaCommsE13WrappedMethodIXadL_ZNS3_5ResetERKNS_12CallbackInfoEEEEEP12napi_value__P10napi_env__P20napi_callback_info__EUlvE_EESA_T_
FN:70,_ZN4Napi7details12WrapCallbackIZNS_10ObjectWrapI9LoRaCommsE13WrappedMethodIXadL_ZNS3_20GetLogMaxMessageSizeERKNS_12CallbackInfoEEEEEP12napi_value__P10napi_env__P20napi_callback_info__EUlvE_EESA_T_
FN:70,_ZN4Napi7details12WrapCallbackIZNS_10ObjectWrapI9LoRaCommsE26ConstructorCallbackWrapperEP10napi_env__P20napi_callback_info__EUlvE_EEP12napi_value__T_
FN:70,_ZN4Napi7details12WrapCallbackIZNS_10ObjectWrapI9LoRaCommsE13WrappedMethodIXadL_ZNS3_12SetGWSendHWMERKNS_12CallbackInfoEEEEEP12napi_value__P10napi_env__P20napi_callback_info__EUlvE_EESA_T_
FN:70,_ZN4Napi7details12WrapCallbackIZNS_10ObjectWrapI9LoRaCommsE13WrappedMethodIXadL_ZNS3_5StartERKNS_12CallbackInfoEEEEEP12napi_value__P10napi_env__P20napi_callback_info__EUlvE_EESA_T_
FN:70,_ZN4Napi7details12WrapCallbackIZNS_10ObjectWrapI9LoRaCommsE31StaticVoidMethodCallbackWrapperEP10napi_env__P20napi_callback_info__EUlvE_EEP12napi_value__T_
FN:251,_ZN4Napi14RegisterModuleEP10napi_env__P12napi_value__PFNS_6ObjectENS_3EnvES4_E
FN:254,_ZZN4Napi14RegisterModuleEP10napi_env__P12napi_value__PFNS_6ObjectENS_3EnvES4_EENKUlvE_clEv
FN:264,_ZN4Napi3EnvC2EP10napi_env__
FN:267,_ZNK4Napi3EnvcvP10napi_env__Ev
FN:278,_ZNK4Napi3Env9UndefinedEv
FN:285,_ZNK4Napi3Env4NullEv
FN:292,_ZNK4Napi3Env18IsExceptionPendingEv
FN:374,_ZN4Napi5ValueC2EP10napi_env__P12napi_value__
FN:377,_ZNK4Napi5ValuecvP12napi_value__Ev
FN:396,_ZNK4Napi5Value3EnvEv
FN:400,_ZNK4Napi5Value7IsEmptyEv
FN:537,_ZNK4Napi5Value2AsINS_6BufferIhEEEET_v
FN:537,_ZNK4Napi5Value2AsINS_8FunctionEEET_v
FN:537,_ZNK4Napi5Value2AsINS_6ObjectEEET_v
FN:537,_ZNK4Napi5Value2AsINS_6NumberEEET_v
FN:537,_ZNK4Napi5Value2AsINS_6StringEEET_v
FN:601,_ZN4Napi6Number3NewEP10napi_env__d
FN:611,_ZN4Napi6NumberC2EP10napi_env__P12napi_value__
FN:614,_ZNK4Napi6NumbercviEv
FN:618,_ZNK4Napi6NumbercvjEv
FN:634,_ZNK4Napi6Number10Int32ValueEv
FN:641,_ZNK4Napi6Number11Uint32ValueEv
FN:767,_ZN4Napi4NameC2EP10napi_env__P12napi_value__
FN:813,_ZN4Napi6StringC2EP10napi_env__P12napi_value__
FN:816,_ZNK4Napi6StringcvNSt7__cxx1112basic_stringIcSt11char_traitsIcESaIcEEEEv
FN:824,_ZNK4Napi6String9Utf8ValueB5cxx11Ev
FN:931,_ZN4Napi7details11vf_fallbackINS_8FunctionEE4FromEP10napi_env__RKS2_
FN:931,_ZN4Napi7details11vf_fallbackINS_5ValueEE4FromEP10napi_env__RKS2_
FN:951,_ZN4Napi5Value4FromINS_8FunctionEEES0_P10napi_env__RKT_
FN:951,_ZN4Napi5Value4FromIS0_EES0_P10napi_env__RKT_
FN:1006,_ZN4Napi6Object3NewEP10napi_env__
FN:1016,_ZN4Napi6ObjectC2EP10napi_env__P12napi_value__
FN:1107,_ZNK4Napi6Object3GetEPKc
FN:1133,_ZN4Napi6Object3SetINS_5ValueEEEvPKcRKT_
FN:1133,_ZN4Napi6Object3SetINS_8FunctionEEEvPKcRKT_
FN:1631,_ZN4Napi10TypedArrayC2EP10napi_env__P12napi_value__
FN:1741,_ZN4Napi12TypedArrayOfIhEC2EP10napi_env__P12napi_value__
FN:1788,_ZN4NapiL14CreateFunctionINS_10ObjectWrapI9LoRaCommsE18MethodCallbackDataIPFvRKNS_12CallbackInfoEEEEEE11napi_statusP10napi_env__PKcPFP12napi_value__SD_P20napi_callback_info__EPT_PSH_
FN:1788,_ZN4NapiL14CreateFunctionINS_10ObjectWrapI9LoRaCommsE18MethodCallbackDataIPFNS_5ValueERKNS_12CallbackInfoEEEEEE11napi_statusP10napi_env__PKcPFP12napi_value__SE_P20napi_callback_info__EPT_PSI_
FN:1881,_ZN4Napi8FunctionC2EP10napi_env__P12napi_value__
FN:1900,_ZNK4Napi8Function4CallEP12napi_value__RKSt16initializer_listIS2_E
FN:1904,_ZNK4Napi8Function4CallEP12napi_value__RKSt6vectorIS2_SaIS2_EE
FN:1908,_ZNK4Napi8Function4CallEP12napi_value__jPKS2_
FN:1916,_ZNK4Napi8Function12MakeCallbackEP12napi_value__RKSt16initializer_listIS2_EP20napi_async_context__
FN:1930,_ZNK4Napi8Function12MakeCallbackEP12napi_value__jPKS2_P20napi_async_context__
FN:2075,_ZN4Napi6BufferIhEC2EP10napi_env__P12napi_value__
FN:2085,_ZNK4Napi6BufferIhE6LengthEv
FN:2091,_ZNK4Napi6BufferIhE4DataEv
FN:2097,_ZNK4Napi6BufferIhE10EnsureInfoEv
FN:2115,_ZN4Napi5Error3NewEP10napi_env__
FN:2167,_ZN4Napi5Error3NewEP10napi_env__RKNSt7__cxx1112basic_stringIcSt11char_traitsIcESaIcEEE
FN:2171,_ZN4Napi5Error5FatalEPKcS2_
FN:2178,_ZN4Napi5ErrorC2EP10napi_env__P12napi_value__
FN:2214,_ZNK4Napi5Error7MessageB5cxx11Ev
FN:2231,_ZNK4Napi5Error26ThrowAsJavaScriptExceptionEv
FN:2253,_ZNK4Napi5Error4whatEv
FN:2260,_ZN4Napi5Error3NewIS0_EET_P10napi_env__PKcjPF11napi_statusS4_P12napi_value__S9_PS9_E
FN:2308,_ZN4Napi9ReferenceINS_8FunctionEE3NewERKS1_j
FN:2308,_ZN4Napi9ReferenceINS_6ObjectEE3NewERKS1_j
FN:2308,_ZN4Napi9ReferenceINS_6BufferIhEEE3NewERKS2_j
FN:2325,_ZN4Napi9ReferenceINS_6ObjectEEC2Ev
FN:2329,_ZN4Napi9ReferenceINS_8FunctionEEC2EP10napi_env__P10napi_ref__
FN:2329,_ZN4Napi9ReferenceINS_6ObjectEEC2EP10napi_env__P10napi_ref__
FN:2329,_ZN4Napi9ReferenceINS_6BufferIhEEEC2EP10napi_env__P10napi_ref__
FN:2334,_ZN4Napi9ReferenceINS_6ObjectEED2Ev
FN:2334,_ZN4Napi9ReferenceINS_6BufferIhEEED2Ev
FN:2334,_ZN4Napi9ReferenceINS_8FunctionEED2Ev
FN:2345,_ZN4Napi9ReferenceINS_8FunctionEEC2EOS2_
FN:2345,_ZN4Napi9ReferenceINS_6ObjectEEC2EOS2_
FN:2353,_ZN4Napi9ReferenceINS_6ObjectEEaSEOS2_
FN:2395,_ZNK4Napi9ReferenceINS_8FunctionEE3EnvEv
FN:2395,_ZNK4Napi9ReferenceINS_6ObjectEE3EnvEv
FN:2400,_ZNK4Napi9ReferenceINS_8FunctionEE7IsEmptyEv
FN:2400,_ZNK4Napi9ReferenceINS_6ObjectEE7IsEmptyEv
FN:2405,_ZNK4Napi9ReferenceINS_6ObjectEE5ValueEv
FN:2405,_ZNK4Napi9ReferenceINS_8FunctionEE5ValueEv
FN:2433,_ZN4Napi9ReferenceINS_6ObjectEE5ResetEv
FN:2472,_ZN4Napi10PersistentINS_6BufferIhEEEENS_9ReferenceIT_EES4_
FN:2476,_ZN4Napi10PersistentENS_6ObjectE
FN:2480,_ZN4Napi10PersistentENS_8FunctionE
FN:2491,_ZN4Napi15ObjectReferenceC2EP10napi_env__P10napi_ref__
FN:2494,_ZN4Napi15ObjectReferenceC2EONS_9ReferenceINS_6ObjectEEE
FN:2516,_ZNK4Napi15ObjectReference3GetEPKc
FN:2531,_ZN4Napi15ObjectReference3SetEPKcNS_5ValueE
FN:2622,_ZN4Napi17FunctionReferenceC2EONS_9ReferenceINS_8FunctionEEE
FN:2664,_ZNK4Napi17FunctionReference4CallEP12napi_value__RKSt16initializer_listIS2_E
FN:2674,_ZNK4Napi17FunctionReference4CallEP12napi_value__RKSt6vectorIS2_SaIS2_EE
FN:2694,_ZNK4Napi17FunctionReference12MakeCallbackEP12napi_value__RKSt16initializer_listIS2_EP20napi_async_context__
FN:2745,_ZN4Napi12CallbackInfoC2EP10napi_env__P20napi_callback_info__
FN:2763,_ZN4Napi12CallbackInfoD2Ev
FN:2780,_ZNK4Napi12CallbackInfo3EnvEv
FN:2788,_ZNK4Napi12CallbackInfoixEj
FN:2792,_ZNK4Napi12CallbackInfo4ThisEv
FN:2799,_ZNK4Napi12CallbackInfo4DataEv
FN:2803,_ZN4Napi12CallbackInfo7SetDataEPv
FN:3144,_ZN4Napi10ObjectWrapI9LoRaCommsEC2ERKNS_12CallbackInfoE
FN:3157,_ZN4Napi10ObjectWrapI9LoRaCommsED2Ev
FN:3157,_ZN4Napi10ObjectWrapI9LoRaCommsED0Ev
FN:3171,_ZN4Napi10ObjectWrapI9LoRaCommsE6UnwrapENS_6ObjectE
FN:3180,_ZN4Napi10ObjectWrapI9LoRaCommsE11DefineClassENS_3EnvEPKcjPK24napi_property_descriptorPv
FN:3268,_ZN4Napi10ObjectWrapI9LoRaCommsE11DefineClassENS_3EnvEPKcRKSt16initializer_listINS_23ClassPropertyDescriptorIS1_EEEPv
FN:3359,_ZN4Napi10ObjectWrapI9LoRaCommsE12StaticMethodIXadL_ZNS1_5ResetERKNS_12CallbackInfoEEEEENS_23ClassPropertyDescriptorIS1_EEPKc24napi_property_attributesPv
FN:3359,_ZN4Napi10ObjectWrapI9LoRaCommsE12StaticMethodIXadL_ZNS1_5StartERKNS_12CallbackInfoEEEEENS_23ClassPropertyDescriptorIS1_EEPKc24napi_property_attributesPv
FN:3359,_ZN4Napi10ObjectWrapI9LoRaCommsE12StaticMethodIXadL_ZNS1_8RecvFromERKNS_12CallbackInfoEEEEENS_23ClassPropertyDescriptorIS1_EEPKc24napi_property_attributesPv
FN:3359,_ZN4Napi10ObjectWrapI9LoRaCommsE12StaticMethodIXadL_ZNS1_16SetGWSendTimeoutERKNS_12CallbackInfoEEEEENS_23ClassPropertyDescriptorIS1_EEPKc24napi_property_attributesPv
FN:3359,_ZN4Napi10ObjectWrapI9LoRaCommsE12StaticMethodIXadL_ZNS1_4StopERKNS_12CallbackInfoEEEEENS_23ClassPropertyDescriptorIS1_EEPKc24napi_property_attributesPv
FN:3359,_ZN4Napi10ObjectWrapI9LoRaCommsE12StaticMethodIXadL_ZNS1_20SetLogMaxMessageSizeERKNS_12CallbackInfoEEEEENS_23ClassPropertyDescriptorIS1_EEPKc24napi_property_attributesPv
FN:3359,_ZN4Napi10ObjectWrapI9LoRaCommsE12StaticMethodIXadL_ZNS1_12StartLoggingERKNS_12CallbackInfoEEEEENS_23ClassPropertyDescriptorIS1_EEPKc24napi_property_attributesPv
FN:3359,_ZN4Napi10ObjectWrapI9LoRaCommsE12StaticMethodIXadL_ZNS1_12SetGWSendHWMERKNS_12CallbackInfoEEEEENS_23ClassPropertyDescriptorIS1_EEPKc24napi_property_attributesPv
FN:3359,_ZN4Napi10ObjectWrapI9LoRaCommsE12StaticMethodIXadL_ZNS1_11StopLoggingERKNS_12CallbackInfoEEEEENS_23ClassPropertyDescriptorIS1_EEPKc24napi_property_attributesPv
FN:3359,_ZN4Napi10ObjectWrapI9LoRaCommsE12StaticMethodIXadL_ZNS1_18GetLogErrorMessageERKNS_12CallbackInfoEEEEENS_23ClassPropertyDescriptorIS1_EEPKc24napi_property_attributesPv
FN:3359,_ZN4Napi10ObjectWrapI9LoRaCommsE12StaticMethodIXadL_ZNS1_14SetLogWriteHWMERKNS_12CallbackInfoEEEEENS_23ClassPropertyDescriptorIS1_EEPKc24napi_property_attributesPv
FN:3359,_ZN4Napi10ObjectWrapI9LoRaCommsE12StaticMethodIXadL_ZNS1_16SetGWRecvTimeoutERKNS_12CallbackInfoEEEEENS_23ClassPropertyDescriptorIS1_EEPKc24napi_property_attributesPv
FN:3359,_ZN4Napi10ObjectWrapI9LoRaCommsE12StaticMethodIXadL_ZNS1_6SendToERKNS_12CallbackInfoEEEEENS_23ClassPropertyDescriptorIS1_EEPKc24napi_property_attributesPv
FN:3359,_ZN4Napi10ObjectWrapI9LoRaCommsE12StaticMethodIXadL_ZNS1_18SetLogWriteTimeoutERKNS_12CallbackInfoEEEEENS_23ClassPropertyDescriptorIS1_EEPKc24napi_property_attributesPv
FN:3359,_ZN4Napi10ObjectWrapI9LoRaCommsE12StaticMethodIXadL_ZNS1_17GetLogInfoMessageERKNS_12CallbackInfoEEEEENS_23ClassPropertyDescriptorIS1_EEPKc24napi_property_attributesPv
FN:3359,_ZN4Napi10ObjectWrapI9LoRaCommsE12StaticMethodIXadL_ZNS1_12ResetLoggingERKNS_12CallbackInfoEEEEENS_23ClassPropertyDescriptorIS1_EEPKc24napi_property_attributesPv
FN:3387,_ZN4Napi10ObjectWrapI9LoRaCommsE12StaticMethodIXadL_ZNS1_20GetLogMaxMessageSizeERKNS_12CallbackInfoEEEEENS_23ClassPropertyDescriptorIS1_EEPKc24napi_property_attributesPv
FN:3676,_ZN4Napi10ObjectWrapI9LoRaCommsE11StaticValueEPKcNS_5ValueE24napi_property_attributes
FN:3720,_ZN4Napi10ObjectWrapI9LoRaCommsE8FinalizeENS_3EnvE
FN:3723,_ZN4Napi10ObjectWrapI9LoRaCommsE26ConstructorCallbackWrapperEP10napi_env__P20napi_callback_info__
FN:3736,_ZZN4Napi10ObjectWrapI9LoRaCommsE26ConstructorCallbackWrapperEP10napi_env__P20napi_callback_info__ENKUlvE_clEv
FN:3758,_ZN4Napi10ObjectWrapI9LoRaCommsE31StaticVoidMethodCallbackWrapperEP10napi_env__P20napi_callback_info__
FN:3761,_ZZN4Napi10ObjectWrapI9LoRaCommsE31StaticVoidMethodCallbackWrapperEP10napi_env__P20napi_callback_info__ENKUlvE_clEv
FN:3772,_ZN4Napi10ObjectWrapI9LoRaCommsE27StaticMethodCallbackWrapperEP10napi_env__P20napi_callback_info__
FN:3775,_ZZN4Napi10ObjectWrapI9LoRaCommsE27StaticMethodCallbackWrapperEP10napi_env__P20napi_callback_info__ENKUlvE_clEv
FN:3785,_ZN4Napi10ObjectWrapI9LoRaCommsE27StaticGetterCallbackWrapperEP10napi_env__P20napi_callback_info__
FN:3788,_ZZN4Napi10ObjectWrapI9LoRaCommsE27StaticGetterCallbackWrapperEP10napi_env__P20napi_callback_info__ENKUlvE_clEv
FN:3798,_ZN4Napi10ObjectWrapI9LoRaCommsE27StaticSetterCallbackWrapperEP10napi_env__P20napi_callback_info__
FN:3801,_ZZN4Napi10ObjectWrapI9LoRaCommsE27StaticSetterCallbackWrapperEP10napi_env__P20napi_callback_info__ENKUlvE_clEv
FN:3812,_ZN4Napi10ObjectWrapI9LoRaCommsE33InstanceVoidMethodCallbackWrapperEP10napi_env__P20napi_callback_info__
FN:3815,_ZZN4Napi10ObjectWrapI9LoRaCommsE33InstanceVoidMethodCallbackWrapperEP10napi_env__P20napi_callback_info__ENKUlvE_clEv
FN:3828,_ZN4Napi10ObjectWrapI9LoRaCommsE29InstanceMethodCallbackWrapperEP10napi_env__P20napi_callback_info__
FN:3831,_ZZN4Napi10ObjectWrapI9LoRaCommsE29InstanceMethodCallbackWrapperEP10napi_env__P20napi_callback_info__ENKUlvE_clEv
FN:3843,_ZN4Napi10ObjectWrapI9LoRaCommsE29InstanceGetterCallbackWrapperEP10napi_env__P20napi_callback_info__
FN:3846,_ZZN4Napi10ObjectWrapI9LoRaCommsE29InstanceGetterCallbackWrapperEP10napi_env__P20napi_callback_info__ENKUlvE_clEv
FN:3858,_ZN4Napi10ObjectWrapI9LoRaCommsE29InstanceSetterCallbackWrapperEP10napi_env__P20napi_callback_info__
FN:3861,_ZZN4Napi10ObjectWrapI9LoRaCommsE29InstanceSetterCallbackWrapperEP10napi_env__P20napi_callback_info__ENKUlvE_clEv
FN:3874,_ZN4Napi10ObjectWrapI9LoRaCommsE16FinalizeCallbackEP10napi_env__PvS5_
FN:3882,_ZN4Napi10ObjectWrapI9LoRaCommsE13WrappedMethodIXadL_ZNS1_18GetLogErrorMessageERKNS_12CallbackInfoEEEEEP12napi_value__P10napi_env__P20napi_callback_info__
FN:3882,_ZN4Napi10ObjectWrapI9LoRaCommsE13WrappedMethodIXadL_ZNS1_8RecvFromERKNS_12CallbackInfoEEEEEP12napi_value__P10napi_env__P20napi_callback_info__
FN:3882,_ZN4Napi10ObjectWrapI9LoRaCommsE13WrappedMethodIXadL_ZNS1_17GetLogInfoMessageERKNS_12CallbackInfoEEEEEP12napi_value__P10napi_env__P20napi_callback_info__
FN:3882,_ZN4Napi10ObjectWrapI9LoRaCommsE13WrappedMethodIXadL_ZNS1_12StartLoggingERKNS_12CallbackInfoEEEEEP12napi_value__P10napi_env__P20napi_callback_info__
FN:3882,_ZN4Napi10ObjectWrapI9LoRaCommsE13WrappedMethodIXadL_ZNS1_11StopLoggingERKNS_12CallbackInfoEEEEEP12napi_value__P10napi_env__P20napi_callback_info__
FN:3882,_ZN4Napi10ObjectWrapI9LoRaCommsE13WrappedMethodIXadL_ZNS1_14SetLogWriteHWMERKNS_12CallbackInfoEEEEEP12napi_value__P10napi_env__P20napi_callback_info__
FN:3882,_ZN4Napi10ObjectWrapI9LoRaCommsE13WrappedMethodIXadL_ZNS1_16SetGWSendTimeoutERKNS_12CallbackInfoEEEEEP12napi_value__P10napi_env__P20napi_callback_info__
FN:3882,_ZN4Napi10ObjectWrapI9LoRaCommsE13WrappedMethodIXadL_ZNS1_12SetGWSendHWMERKNS_12CallbackInfoEEEEEP12napi_value__P10napi_env__P20napi_callback_info__
FN:3882,_ZN4Napi10ObjectWrapI9LoRaCommsE13WrappedMethodIXadL_ZNS1_4StopERKNS_12CallbackInfoEEEEEP12napi_value__P10napi_env__P20napi_callback_info__
FN:3882,_ZN4Napi10ObjectWrapI9LoRaCommsE13WrappedMethodIXadL_ZNS1_20SetLogMaxMessageSizeERKNS_12CallbackInfoEEEEEP12napi_value__P10napi_env__P20napi_callback_info__
FN:3882,_ZN4Napi10ObjectWrapI9LoRaCommsE13WrappedMethodIXadL_ZNS1_16SetGWRecvTimeoutERKNS_12CallbackInfoEEEEEP12napi_value__P10napi_env__P20napi_callback_info__
FN:3882,_ZN4Napi10ObjectWrapI9LoRaCommsE13WrappedMethodIXadL_ZNS1_6SendToERKNS_12CallbackInfoEEEEEP12napi_value__P10napi_env__P20napi_callback_info__
FN:3882,_ZN4Napi10ObjectWrapI9LoRaCommsE13WrappedMethodIXadL_ZNS1_18SetLogWriteTimeoutERKNS_12CallbackInfoEEEEEP12napi_value__P10napi_env__P20napi_callback_info__
FN:3882,_ZN4Napi10ObjectWrapI9LoRaCommsE13WrappedMethodIXadL_ZNS1_5ResetERKNS_12CallbackInfoEEEEEP12napi_value__P10napi_env__P20napi_callback_info__
FN:3882,_ZN4Napi10ObjectWrapI9LoRaCommsE13WrappedMethodIXadL_ZNS1_5StartERKNS_12CallbackInfoEEEEEP12napi_value__P10napi_env__P20napi_callback_info__
FN:3882,_ZN4Napi10ObjectWrapI9LoRaCommsE13WrappedMethodIXadL_ZNS1_12ResetLoggingERKNS_12CallbackInfoEEEEEP12napi_value__P10napi_env__P20napi_callback_info__
FN:3883,_ZZN4Napi10ObjectWrapI9LoRaCommsE13WrappedMethodIXadL_ZNS1_18GetLogErrorMessageERKNS_12CallbackInfoEEEEEP12napi_value__P10napi_env__P20napi_callback_info__ENKUlvE_clEv
FN:3883,_ZZN4Napi10ObjectWrapI9LoRaCommsE13WrappedMethodIXadL_ZNS1_20SetLogMaxMessageSizeERKNS_12CallbackInfoEEEEEP12napi_value__P10napi_env__P20napi_callback_info__ENKUlvE_clEv
FN:3883,_ZZN4Napi10ObjectWrapI9LoRaCommsE13WrappedMethodIXadL_ZNS1_5StartERKNS_12CallbackInfoEEEEEP12napi_value__P10napi_env__P20napi_callback_info__ENKUlvE_clEv
FN:3883,_ZZN4Napi10ObjectWrapI9LoRaCommsE13WrappedMethodIXadL_ZNS1_6SendToERKNS_12CallbackInfoEEEEEP12napi_value__P10napi_env__P20napi_callback_info__ENKUlvE_clEv
FN:3883,_ZZN4Napi10ObjectWrapI9LoRaCommsE13WrappedMethodIXadL_ZNS1_12ResetLoggingERKNS_12CallbackInfoEEEEEP12napi_value__P10napi_env__P20napi_callback_info__ENKUlvE_clEv
FN:3883,_ZZN4Napi10ObjectWrapI9LoRaCommsE13WrappedMethodIXadL_ZNS1_14SetLogWriteHWMERKNS_12CallbackInfoEEEEEP12napi_value__P10napi_env__P20napi_callback_info__ENKUlvE_clEv
FN:3883,_ZZN4Napi10ObjectWrapI9LoRaCommsE13WrappedMethodIXadL_ZNS1_12SetGWSendHWMERKNS_12CallbackInfoEEEEEP12napi_value__P10napi_env__P20napi_callback_info__ENKUlvE_clEv
FN:3883,_ZZN4Napi10ObjectWrapI9LoRaCommsE13WrappedMethodIXadL_ZNS1_16SetGWRecvTimeoutERKNS_12CallbackInfoEEEEEP12napi_value__P10napi_env__P20napi_callback_info__ENKUlvE_clEv
FN:3883,_ZZN4Napi10ObjectWrapI9LoRaCommsE13WrappedMethodIXadL_ZNS1_17GetLogInfoMessageERKNS_12CallbackInfoEEEEEP12napi_value__P10napi_env__P20napi_callback_info__ENKUlvE_clEv
FN:3883,_ZZN4Napi10ObjectWrapI9LoRaCommsE13WrappedMethodIXadL_ZNS1_5ResetERKNS_12CallbackInfoEEEEEP12napi_value__P10napi_env__P20napi_callback_info__ENKUlvE_clEv
FN:3883,_ZZN4Napi10ObjectWrapI9LoRaCommsE13WrappedMethodIXadL_ZNS1_18SetLogWriteTimeoutERKNS_12CallbackInfoEEEEEP12napi_value__P10napi_env__P20napi_callback_info__ENKUlvE_clEv
FN:3883,_ZZN4Napi10ObjectWrapI9LoRaCommsE13WrappedMethodIXadL_ZNS1_8RecvFromERKNS_12CallbackInfoEEEEEP12napi_value__P10napi_env__P20napi_callback_info__ENKUlvE_clEv
FN:3883,_ZZN4Napi10ObjectWrapI9LoRaCommsE13WrappedMethodIXadL_ZNS1_4StopERKNS_12CallbackInfoEEEEEP12napi_value__P10napi_env__P20napi_callback_info__ENKUlvE_clEv
FN:3883,_ZZN4Napi10ObjectWrapI9LoRaCommsE13WrappedMethodIXadL_ZNS1_11StopLoggingERKNS_12CallbackInfoEEEEEP12napi_value__P10napi_env__P20napi_callback_info__ENKUlvE_clEv
FN:3883,_ZZN4Napi10ObjectWrapI9LoRaCommsE13WrappedMethodIXadL_ZNS1_16SetGWSendTimeoutERKNS_12CallbackInfoEEEEEP12napi_value__P10napi_env__P20napi_callback_info__ENKUlvE_clEv
FN:3883,_ZZN4Napi10ObjectWrapI9LoRaCommsE13WrappedMethodIXadL_ZNS1_12StartLoggingERKNS_12CallbackInfoEEEEEP12napi_value__P10napi_env__P20napi_callback_info__ENKUlvE_clEv
FN:3891,_ZN4Napi10ObjectWrapI9LoRaCommsE13WrappedMethodIXadL_ZNS1_20GetLogMaxMessageSizeERKNS_12CallbackInfoEEEEEP12napi_value__P10napi_env__P20napi_callback_info__
FN:3892,_ZZN4Napi10ObjectWrapI9LoRaCommsE13WrappedMethodIXadL_ZNS1_20GetLogMaxMessageSizeERKNS_12CallbackInfoEEEEEP12napi_value__P10napi_env__P20napi_callback_info__ENKUlvE_clEv
FN:3947,_ZN4Napi11HandleScopeC2ENS_3EnvE
FN:3952,_ZN4Napi11HandleScopeD2Ev
FN:3975,_ZN4Napi20EscapableHandleScopeC2ENS_3EnvE
FN:3980,_ZN4Napi20EscapableHandleScopeD2Ev
FN:3991,_ZNK4Napi20EscapableHandleScope3EnvEv
FN:3995,_ZN4Napi20EscapableHandleScope6EscapeEP12napi_value__
FN:4091,_ZN4Napi11AsyncWorkerC2ERKNS_8FunctionE
FN:4095,_ZN4Napi11AsyncWorkerC2ERKNS_8FunctionEPKc
FN:4100,_ZN4Napi11AsyncWorkerC2ERKNS_8FunctionEPKcRKNS_6ObjectE
FN:4123,_ZN4Napi11AsyncWorkerC2ERKNS_6ObjectERKNS_8FunctionEPKcS3_
FN:4167,_ZN4Napi11AsyncWorkerD0Ev
FN:4167,_ZN4Napi11AsyncWorkerD2Ev
FN:4174,_ZN4Napi11AsyncWorker7DestroyEv
FN:4205,_ZNK4Napi11AsyncWorker3EnvEv
FN:4209,_ZN4Napi11AsyncWorker5QueueEv
FN:4219,_ZN4Napi11AsyncWorker8ReceiverEv
FN:4223,_ZN4Napi11AsyncWorker8CallbackEv
FN:4231,_ZN4Napi11AsyncWorker4OnOKEv
FN:4237,_ZN4Napi11AsyncWorker7OnErrorERKNS_5ErrorE
FN:4243,_ZN4Napi11AsyncWorker8SetErrorERKNSt7__cxx1112basic_stringIcSt11char_traitsIcESaIcEEE
FN:4247,_ZN4Napi11AsyncWorker9GetResultENS_3EnvE
FN:4254,_ZN4Napi11AsyncWorker18OnAsyncWorkExecuteEP10napi_env__Pv
FN:4262,_ZN4Napi11AsyncWorker9OnExecuteENS_3EnvE
FN:4274,_ZN4Napi11AsyncWorker19OnAsyncWorkCompleteEP10napi_env__11napi_statusPv
FN:4280,_ZN4Napi11AsyncWorker14OnWorkCompleteENS_3EnvE11napi_status
FN:4283,_ZZN4Napi11AsyncWorker14OnWorkCompleteENS_3EnvE11napi_statusENKUlvE_clEv
FNDA:0,_ZN4Napi10ObjectWrapI9LoRaCommsE29InstanceGetterCallbackWrapperEP10napi_env__P20napi_callback_info__
FNDA:0,_ZN4Napi7details12WrapCallbackIZNS_10ObjectWrapI9LoRaCommsE27StaticGetterCallbackWrapperEP10napi_env__P20napi_callback_info__EUlvE_EEP12napi_value__T_
FNDA:1,_ZZN4Napi10ObjectWrapI9LoRaCommsE13WrappedMethodIXadL_ZNS1_11StopLoggingERKNS_12CallbackInfoEEEEEP12napi_value__P10napi_env__P20napi_callback_info__ENKUlvE_clEv
FNDA:10436,_ZNK4Napi5ValuecvP12napi_value__Ev
FNDA:1,_ZN4Napi10ObjectWrapI9LoRaCommsE13WrappedMethodIXadL_ZNS1_20SetLogMaxMessageSizeERKNS_12CallbackInfoEEEEEP12napi_value__P10napi_env__P20napi_callback_info__
FNDA:1,_ZN4Napi10ObjectWrapI9LoRaCommsE12StaticMethodIXadL_ZNS1_6SendToERKNS_12CallbackInfoEEEEENS_23ClassPropertyDescriptorIS1_EEPKc24napi_property_attributesPv
FNDA:1,_ZN4Napi7details12WrapCallbackIZNS_10ObjectWrapI9LoRaCommsE13WrappedMethodIXadL_ZNS3_11StopLoggingERKNS_12CallbackInfoEEEEEP12napi_value__P10napi_env__P20napi_callback_info__EUlvE_EESA_T_
FNDA:872,_ZN4Napi15ObjectReferenceC2EONS_9ReferenceINS_6ObjectEEE
FNDA:16,_ZNK4Napi9ReferenceINS_8FunctionEE7IsEmptyEv
FNDA:856,_ZN4Napi10PersistentINS_6BufferIhEEEENS_9ReferenceIT_EES4_
FNDA:0,_ZN4Napi7details12WrapCallbackIZNS_10ObjectWrapI9LoRaCommsE29InstanceSetterCallbackWrapperEP10napi_env__P20napi_callback_info__EUlvE_EEP12napi_value__T_
FNDA:0,_ZN4Napi7detailsL10AttachDataINS_10ObjectWrapI9LoRaCommsE18MethodCallbackDataIPFNS_5ValueERKNS_12CallbackInfoEEEEEE11napi_statusP10napi_env__P12napi_value__PT_PFvSF_PvSK_ESK_
FNDA:872,_ZN4Napi11AsyncWorker5QueueEv
FNDA:15,_ZN4Napi10ObjectWrapI9LoRaCommsE13WrappedMethodIXadL_ZNS1_4StopERKNS_12CallbackInfoEEEEEP12napi_value__P10napi_env__P20napi_callback_info__
FNDA:872,_ZN4Napi10PersistentENS_8FunctionE
FNDA:15,_ZZN4Napi10ObjectWrapI9LoRaCommsE13WrappedMethodIXadL_ZNS1_4StopERKNS_12CallbackInfoEEEEEP12napi_value__P10napi_env__P20napi_callback_info__ENKUlvE_clEv
FNDA:872,_ZN4Napi11AsyncWorkerC2ERKNS_8FunctionEPKcRKNS_6ObjectE
FNDA:15,_ZNK4Napi8Function4CallEP12napi_value__RKSt6vectorIS2_SaIS2_EE
FNDA:872,_ZN4Napi17FunctionReferenceC2EONS_9ReferenceINS_8FunctionEEE
FNDA:0,_ZZN4Napi10ObjectWrapI9LoRaCommsE27StaticSetterCallbackWrapperEP10napi_env__P20napi_callback_info__ENKUlvE_clEv
FNDA:0,_ZZN4Napi7detailsL10AttachDataINS_10ObjectWrapI9LoRaCommsE18MethodCallbackDataIPFvRKNS_12CallbackInfoEEEEEE11napi_statusP10napi_env__P12napi_value__PT_PFvSE_PvSJ_ESJ_ENKUlSE_SJ_SJ_E_clESE_SJ_SJ_
FNDA:0,_ZZN4Napi10ObjectWrapI9LoRaCommsE31StaticVoidMethodCallbackWrapperEP10napi_env__P20napi_callback_info__ENKUlvE_clEv
FNDA:1,_ZNK4Napi17FunctionReference4CallEP12napi_value__RKSt16initializer_listIS2_E
FNDA:2,_ZN4Napi10ObjectWrapI9LoRaCommsE13WrappedMethodIXadL_ZNS1_12SetGWSendHWMERKNS_12CallbackInfoEEEEEP12napi_value__P10napi_env__P20napi_callback_info__
FNDA:10393,_ZNK4Napi3EnvcvP10napi_env__Ev
FNDA:1,_ZN4Napi10ObjectWrapI9LoRaCommsE12StaticMethodIXadL_ZNS1_16SetGWRecvTimeoutERKNS_12CallbackInfoEEEEENS_23ClassPropertyDescriptorIS1_EEPKc24napi_property_attributesPv
FNDA:0,_ZZN4Napi7detailsL10AttachDataINS_10ObjectWrapI9LoRaCommsE18MethodCallbackDataIMS3_FNS_5ValueERKNS_12CallbackInfoEEEEEE11napi_statusP10napi_env__P12napi_value__PT_PFvSF_PvSK_ESK_ENKUlSF_SK_SK_E_clESF_SK_SK_
FNDA:872,_ZN4Napi11AsyncWorker18OnAsyncWorkExecuteEP10napi_env__Pv
FNDA:0,_ZNK4Napi3Env9UndefinedEv
FNDA:856,_ZN4Napi11AsyncWorker8CallbackEv
FNDA:872,_ZN4Napi11AsyncWorkerC2ERKNS_8FunctionE
FNDA:872,_ZN4Napi11AsyncWorkerD2Ev
FNDA:3537,_ZNK4Napi12CallbackInfoixEj
FNDA:856,_ZNK4Napi17FunctionReference12MakeCallbackEP12napi_value__RKSt16initializer_listIS2_EP20napi_async_context__
FNDA:23,_ZZN4Napi10ObjectWrapI9LoRaCommsE13WrappedMethodIXadL_ZNS1_8RecvFromERKNS_12CallbackInfoEEEEEP12napi_value__P10napi_env__P20napi_callback_info__ENKUlvE_clEv
FNDA:0,_ZZN4Napi10ObjectWrapI9LoRaCommsE27StaticMethodCallbackWrapperEP10napi_env__P20napi_callback_info__ENKUlvE_clEv
FNDA:1792,_ZNK4Napi6Number10Int32ValueEv
FNDA:0,_ZNK4Napi6StringcvNSt7__cxx1112basic_stringIcSt11char_traitsIcESaIcEEEEv
FNDA:0,_ZN4Napi7detailsL10AttachDataINS_10ObjectWrapI9LoRaCommsE18MethodCallbackDataIMS3_FvRKNS_12CallbackInfoEEEEEE11napi_statusP10napi_env__P12napi_value__PT_PFvSE_PvSJ_ESJ_
FNDA:1712,_ZNK4Napi6BufferIhE10EnsureInfoEv
FNDA:856,_ZNK4Napi8Function12MakeCallbackEP12napi_value__RKSt16initializer_listIS2_EP20napi_async_context__
FNDA:0,_ZNK4Napi5Error4whatEv
FNDA:0,_ZZN4Napi7detailsL10AttachDataINS_10ObjectWrapI9LoRaCommsE20AccessorCallbackDataIMS3_FNS_5ValueERKNS_12CallbackInfoEEMS3_FvS9_RKS6_EEEEE11napi_statusP10napi_env__P12napi_value__PT_PFvSJ_PvSO_ESO_ENKUlSJ_SO_SO_E_clESJ_SO_SO_
FNDA:2,_ZN4Napi10ObjectWrapI9LoRaCommsE13WrappedMethodIXadL_ZNS1_16SetGWSendTimeoutERKNS_12CallbackInfoEEEEEP12napi_value__P10napi_env__P20napi_callback_info__
FNDA:16,_ZNK4Napi6String9Utf8ValueB5cxx11Ev
FNDA:0,_ZN4Napi7detailsL10AttachDataINS_10ObjectWrapI9LoRaCommsE18MethodCallbackDataIPFvRKNS_12CallbackInfoEEEEEE11napi_statusP10napi_env__P12napi_value__PT_PFvSE_PvSJ_ESJ_
FNDA:872,_ZN4Napi11AsyncWorkerC2ERKNS_8FunctionEPKc
FNDA:16,_ZN4Napi7details12WrapCallbackIZNS_10ObjectWrapI9LoRaCommsE13WrappedMethodIXadL_ZNS3_12StartLoggingERKNS_12CallbackInfoEEEEEP12napi_value__P10napi_env__P20napi_callback_info__EUlvE_EESA_T_
FNDA:1,_ZZN4Napi10ObjectWrapI9LoRaCommsE13WrappedMethodIXadL_ZNS1_18SetLogWriteTimeoutERKNS_12CallbackInfoEEEEEP12napi_value__P10napi_env__P20napi_callback_info__ENKUlvE_clEv
FNDA:0,_ZN4NapiL14CreateFunctionINS_10ObjectWrapI9LoRaCommsE18MethodCallbackDataIPFNS_5ValueERKNS_12CallbackInfoEEEEEE11napi_statusP10napi_env__PKcPFP12napi_value__SE_P20napi_callback_info__EPT_PSI_
FNDA:15,_ZZN4Napi10ObjectWrapI9LoRaCommsE13WrappedMethodIXadL_ZNS1_5ResetERKNS_12CallbackInfoEEEEEP12napi_value__P10napi_env__P20napi_callback_info__ENKUlvE_clEv
FNDA:872,_ZN4Napi20EscapableHandleScope6EscapeEP12napi_value__
FNDA:815,_ZNK4Napi3Env4NullEv
FNDA:1,_ZN4Napi10ObjectWrapI9LoRaCommsE12StaticMethodIXadL_ZNS1_18GetLogErrorMessageERKNS_12CallbackInfoEEEEENS_23ClassPropertyDescriptorIS1_EEPKc24napi_property_attributesPv
FNDA:914,_ZN4Napi9ReferenceINS_6ObjectEEC2EP10napi_env__P10napi_ref__
FNDA:3512,_ZN4Napi6NumberC2EP10napi_env__P12napi_value__
FNDA:2,_ZN4Napi7details12WrapCallbackIZNS_10ObjectWrapI9LoRaCommsE13WrappedMethodIXadL_ZNS3_16SetGWRecvTimeoutERKNS_12CallbackInfoEEEEEP12napi_value__P10napi_env__P20napi_callback_info__EUlvE_EESA_T_
FNDA:1,_ZN4Napi10ObjectWrapI9LoRaCommsE12StaticMethodIXadL_ZNS1_14SetLogWriteHWMERKNS_12CallbackInfoEEEEENS_23ClassPropertyDescriptorIS1_EEPKc24napi_property_attributesPv
FNDA:23,_ZN4Napi7details12WrapCallbackIZNS_10ObjectWrapI9LoRaCommsE13WrappedMethodIXadL_ZNS3_8RecvFromERKNS_12CallbackInfoEEEEEP12napi_value__P10napi_env__P20napi_callback_info__EUlvE_EESA_T_
FNDA:872,_ZN4Napi10PersistentENS_6ObjectE
FNDA:0,_ZN4Napi10ObjectWrapI9LoRaCommsE27StaticMethodCallbackWrapperEP10napi_env__P20napi_callback_info__
FNDA:913,_ZN4Napi11HandleScopeC2ENS_3EnvE
FNDA:0,_ZN4Napi9ReferenceINS_6ObjectEEaSEOS2_
FNDA:872,_ZNK4Napi9ReferenceINS_8FunctionEE5ValueEv
FNDA:0,_ZNK4Napi12CallbackInfo4ThisEv
FNDA:0,_ZZN4Napi10ObjectWrapI9LoRaCommsE29InstanceSetterCallbackWrapperEP10napi_env__P20napi_callback_info__ENKUlvE_clEv
FNDA:1,_ZN4Napi11AsyncWorker8SetErrorERKNSt7__cxx1112basic_stringIcSt11char_traitsIcESaIcEEE
FNDA:1,_ZN4Napi10ObjectWrapI9LoRaCommsE12StaticMethodIXadL_ZNS1_12ResetLoggingERKNS_12CallbackInfoEEEEENS_23ClassPropertyDescriptorIS1_EEPKc24napi_property_attributesPv
FNDA:16,_ZNK4Napi8Function4CallEP12napi_value__jPKS2_
FNDA:42,_ZN4Napi15ObjectReferenceC2EP10napi_env__P10napi_ref__
FNDA:0,_ZN4Napi10ObjectWrapI9LoRaCommsED0Ev
FNDA:0,_ZN4Napi10ObjectWrapI9LoRaCommsE6UnwrapENS_6ObjectE
FNDA:15,_ZN4Napi10ObjectWrapI9LoRaCommsE13WrappedMethodIXadL_ZNS1_12ResetLoggingERKNS_12CallbackInfoEEEEEP12napi_value__P10napi_env__P20napi_callback_info__
FNDA:1,_ZN4Napi6Object3SetINS_8FunctionEEEvPKcRKT_
FNDA:16,_ZZN4Napi10ObjectWrapI9LoRaCommsE13WrappedMethodIXadL_ZNS1_12StartLoggingERKNS_12CallbackInfoEEEEEP12napi_value__P10napi_env__P20napi_callback_info__ENKUlvE_clEv
FNDA:0,_ZNK4Napi6Object3GetEPKc
FNDA:16,_ZNK4Napi5Value2AsINS_6StringEEET_v
FNDA:1758,_ZN4Napi12CallbackInfoD2Ev
FNDA:0,_ZN4Napi7details12WrapCallbackIZNS_10ObjectWrapI9LoRaCommsE31StaticVoidMethodCallbackWrapperEP10napi_env__P20napi_callback_info__EUlvE_EEP12napi_value__T_
FNDA:0,_ZN4Napi7detailsL10AttachDataINS_10ObjectWrapI9LoRaCommsE18MethodCallbackDataIMS3_FNS_5ValueERKNS_12CallbackInfoEEEEEE11napi_statusP10napi_env__P12napi_value__PT_PFvSF_PvSK_ESK_
FNDA:15,_ZN4Napi11AsyncWorker4OnOKEv
FNDA:1,_ZN4Napi10ObjectWrapI9LoRaCommsE12StaticMethodIXadL_ZNS1_17GetLogInfoMessageERKNS_12CallbackInfoEEEEENS_23ClassPropertyDescriptorIS1_EEPKc24napi_property_attributesPv
FNDA:16,_ZN4Napi7details12WrapCallbackIZNS_10ObjectWrapI9LoRaCommsE13WrappedMethodIXadL_ZNS3_5StartERKNS_12CallbackInfoEEEEEP12napi_value__P10napi_env__P20napi_callback_info__EUlvE_EESA_T_
FNDA:856,_ZN4Napi9ReferenceINS_6BufferIhEEEC2EP10napi_env__P10napi_ref__
FNDA:16,_ZN4Napi10ObjectWrapI9LoRaCommsE13WrappedMethodIXadL_ZNS1_5StartERKNS_12CallbackInfoEEEEEP12napi_value__P10napi_env__P20napi_callback_info__
FNDA:856,_ZN4Napi12TypedArrayOfIhEC2EP10napi_env__P12napi_value__
FNDA:16,_ZN4Napi6StringC2EP10napi_env__P12napi_value__
FNDA:1,_ZN4Napi10ObjectWrapI9LoRaCommsE11DefineClassENS_3EnvEPKcRKSt16initializer_listINS_23ClassPropertyDescriptorIS1_EEEPv
FNDA:856,_ZN4Napi10TypedArrayC2EP10napi_env__P12napi_value__
FNDA:2,_ZN4Napi7details12WrapCallbackIZNS_10ObjectWrapI9LoRaCommsE13WrappedMethodIXadL_ZNS3_12SetGWSendHWMERKNS_12CallbackInfoEEEEEP12napi_value__P10napi_env__P20napi_callback_info__EUlvE_EESA_T_
FNDA:1,_ZN4Napi10ObjectWrapI9LoRaCommsE12StaticMethodIXadL_ZNS1_18SetLogWriteTimeoutERKNS_12CallbackInfoEEEEENS_23ClassPropertyDescriptorIS1_EEPKc24napi_property_attributesPv
FNDA:815,_ZZN4Napi10ObjectWrapI9LoRaCommsE13WrappedMethodIXadL_ZNS1_20GetLogMaxMessageSizeERKNS_12CallbackInfoEEEEEP12napi_value__P10napi_env__P20napi_callback_info__ENKUlvE_clEv
FNDA:0,_ZN4Napi10ObjectWrapI9LoRaCommsE31StaticVoidMethodCallbackWrapperEP10napi_env__P20napi_callback_info__
FNDA:15,_ZN4Napi10ObjectWrapI9LoRaCommsE13WrappedMethodIXadL_ZNS1_5ResetERKNS_12CallbackInfoEEEEEP12napi_value__P10napi_env__P20napi_callback_info__
FNDA:872,_ZN4Napi9ReferenceINS_6ObjectEEC2EOS2_
FNDA:1745,_ZN4Napi8FunctionC2EP10napi_env__P12napi_value__
FNDA:1,_ZNK4Napi6Number11Uint32ValueEv
FNDA:0,_ZN4Napi7details12WrapCallbackIZNS_10ObjectWrapI9LoRaCommsE26ConstructorCallbackWrapperEP10napi_env__P20napi_callback_info__EUlvE_EEP12napi_value__T_
FNDA:1,_ZN4Napi10ObjectWrapI9LoRaCommsE13WrappedMethodIXadL_ZNS1_18SetLogWriteTimeoutERKNS_12CallbackInfoEEEEEP12napi_value__P10napi_env__P20napi_callback_info__
FNDA:2,_ZZN4Napi10ObjectWrapI9LoRaCommsE13WrappedMethodIXadL_ZNS1_16SetGWSendTimeoutERKNS_12CallbackInfoEEEEEP12napi_value__P10napi_env__P20napi_callback_info__ENKUlvE_clEv
FNDA:19,_ZN4Napi10ObjectWrapI9LoRaCommsE13WrappedMethodIXadL_ZNS1_6SendToERKNS_12CallbackInfoEEEEEP12napi_value__P10napi_env__P20napi_callback_info__
FNDA:15,_ZN4Napi7details12WrapCallbackIZNS_10ObjectWrapI9LoRaCommsE13WrappedMethodIXadL_ZNS3_5ResetERKNS_12CallbackInfoEEEEEP12napi_value__P10napi_env__P20napi_callback_info__EUlvE_EESA_T_
FNDA:856,_ZN4Napi9ReferenceINS_6BufferIhEEE3NewERKS2_j
FNDA:815,_ZN4Napi7details12WrapCallbackIZNS_10ObjectWrapI9LoRaCommsE13WrappedMethodIXadL_ZNS3_20GetLogMaxMessageSizeERKNS_12CallbackInfoEEEEEP12napi_value__P10napi_env__P20napi_callback_info__EUlvE_EESA_T_
FNDA:0,_ZNK4Napi9ReferenceINS_6ObjectEE7IsEmptyEv
FNDA:41,_ZN4Napi15ObjectReference3SetEPKcNS_5ValueE
FNDA:0,_ZN4Napi5Error3NewEP10napi_env__
FNDA:1744,_ZN4Napi6Object3NewEP10napi_env__
FNDA:0,_ZN4Napi10ObjectWrapI9LoRaCommsE27StaticSetterCallbackWrapperEP10napi_env__P20napi_callback_info__
FNDA:0,_ZZN4Napi7detailsL10AttachDataINS_10ObjectWrapI9LoRaCommsE18MethodCallbackDataIMS3_FvRKNS_12CallbackInfoEEEEEE11napi_statusP10napi_env__P12napi_value__PT_PFvSE_PvSJ_ESJ_ENKUlSE_SJ_SJ_E_clESE_SJ_SJ_
FNDA:2,_ZN4Napi10ObjectWrapI9LoRaCommsE13WrappedMethodIXadL_ZNS1_16SetGWRecvTimeoutERKNS_12CallbackInfoEEEEEP12napi_value__P10napi_env__P20napi_callback_info__
FNDA:1793,_ZNK4Napi5Value2AsINS_6NumberEEET_v
FNDA:7,_ZN4Napi10ObjectWrapI9LoRaCommsE11StaticValueEPKcNS_5ValueE24napi_property_attributes
FNDA:872,_ZN4Napi11AsyncWorker7DestroyEv
FNDA:913,_ZN4Napi11HandleScopeD2Ev
FNDA:815,_ZNK4Napi12CallbackInfo3EnvEv
FNDA:41,_ZN4Napi6Object3SetINS_5ValueEEEvPKcRKT_
FNDA:42,_ZN4Napi5Error3NewIS0_EET_P10napi_env__PKcjPF11napi_statusS4_P12napi_value__S9_PS9_E
FNDA:872,_ZN4Napi11AsyncWorker9OnExecuteENS_3EnvE
FNDA:856,_ZNK4Napi6BufferIhE4DataEv
FNDA:41,_ZN4Napi5Value4FromIS0_EES0_P10napi_env__RKT_
FNDA:0,_ZZN4Napi10ObjectWrapI9LoRaCommsE33InstanceVoidMethodCallbackWrapperEP10napi_env__P20napi_callback_info__ENKUlvE_clEv
FNDA:856,_ZNK4Napi6BufferIhE6LengthEv
FNDA:0,_ZN4Napi10ObjectWrapI9LoRaCommsE27StaticGetterCallbackWrapperEP10napi_env__P20napi_callback_info__
FNDA:872,_ZNK4Napi5Value2AsINS_8FunctionEEET_v
FNDA:19,_ZN4Napi7details12WrapCallbackIZNS_10ObjectWrapI9LoRaCommsE13WrappedMethodIXadL_ZNS3_6SendToERKNS_12CallbackInfoEEEEEP12napi_value__P10napi_env__P20napi_callback_info__EUlvE_EESA_T_
FNDA:5301,_ZN4Napi6ObjectC2EP10napi_env__P12napi_value__
FNDA:1,_ZN4Napi7details11vf_fallbackINS_8FunctionEE4FromEP10napi_env__RKS2_
FNDA:856,_ZNK4Napi5Value2AsINS_6BufferIhEEEET_v
FNDA:19,_ZZN4Napi10ObjectWrapI9LoRaCommsE13WrappedMethodIXadL_ZNS1_6SendToERKNS_12CallbackInfoEEEEEP12napi_value__P10napi_env__P20napi_callback_info__ENKUlvE_clEv
FNDA:872,_ZN4Napi9ReferenceINS_8FunctionEE3NewERKS1_j
FNDA:0,_ZN4Napi10ObjectWrapI9LoRaCommsE16FinalizeCallbackEP10napi_env__PvS5_
FNDA:0,_ZN4Napi10ObjectWrapI9LoRaCommsE29InstanceMethodCallbackWrapperEP10napi_env__P20napi_callback_info__
FNDA:1,_ZN4Napi10ObjectWrapI9LoRaCommsE12StaticMethodIXadL_ZNS1_16SetGWSendTimeoutERKNS_12CallbackInfoEEEEENS_23ClassPropertyDescriptorIS1_EEPKc24napi_property_attributesPv
FNDA:1,_ZZN4Napi14RegisterModuleEP10napi_env__P12napi_value__PFNS_6ObjectENS_3EnvES4_EENKUlvE_clEv
FNDA:0,_ZN4Napi10ObjectWrapI9LoRaCommsE26ConstructorCallbackWrapperEP10napi_env__P20napi_callback_info__
FNDA:15,_ZNK4Napi17FunctionReference4CallEP12napi_value__RKSt6vectorIS2_SaIS2_EE
FNDA:1,_ZN4Napi7details12WrapCallbackIZNS_10ObjectWrapI9LoRaCommsE13WrappedMethodIXadL_ZNS3_20SetLogMaxMessageSizeERKNS_12CallbackInfoEEEEEP12napi_value__P10napi_env__P20napi_callback_info__EUlvE_EESA_T_
FNDA:0,_ZN4Napi10ObjectWrapI9LoRaCommsE8FinalizeENS_3EnvE
FNDA:1786,_ZNK4Napi6NumbercviEv
FNDA:16,_ZZN4Napi10ObjectWrapI9LoRaCommsE13WrappedMethodIXadL_ZNS1_5StartERKNS_12CallbackInfoEEEEEP12napi_value__P10napi_env__P20napi_callback_info__ENKUlvE_clEv
FNDA:872,_ZNK4Napi20EscapableHandleScope3EnvEv
FNDA:42,_ZN4Napi5ErrorC2EP10napi_env__P12napi_value__
FNDA:0,_ZZN4Napi10ObjectWrapI9LoRaCommsE29InstanceMethodCallbackWrapperEP10napi_env__P20napi_callback_info__ENKUlvE_clEv
FNDA:0,_ZN4Napi10ObjectWrapI9LoRaCommsE33InstanceVoidMethodCallbackWrapperEP10napi_env__P20napi_callback_info__
FNDA:1786,_ZN4Napi9ReferenceINS_6ObjectEED2Ev
FNDA:0,_ZNK4Napi5Error26ThrowAsJavaScriptExceptionEv
FNDA:0,_ZN4Napi10ObjectWrapI9LoRaCommsED2Ev
FNDA:0,_ZN4Napi7details12WrapCallbackIZNS_10ObjectWrapI9LoRaCommsE29InstanceMethodCallbackWrapperEP10napi_env__P20napi_callback_info__EUlvE_EEP12napi_value__T_
FNDA:0,_ZZN4Napi10ObjectWrapI9LoRaCommsE26ConstructorCallbackWrapperEP10napi_env__P20napi_callback_info__ENKUlvE_clEv
FNDA:1,_ZN4Napi10ObjectWrapI9LoRaCommsE12StaticMethodIXadL_ZNS1_5StartERKNS_12CallbackInfoEEEEENS_23ClassPropertyDescriptorIS1_EEPKc24napi_property_attributesPv
FNDA:1,_ZN4Napi10ObjectWrapI9LoRaCommsE11DefineClassENS_3EnvEPKcjPK24napi_property_descriptorPv
FNDA:0,_ZN4Napi5Error5FatalEPKcS2_
FNDA:1,_ZN4Napi10ObjectWrapI9LoRaCommsE12StaticMethodIXadL_ZNS1_8RecvFromERKNS_12CallbackInfoEEEEENS_23ClassPropertyDescriptorIS1_EEPKc24napi_property_attributesPv
FNDA:1,_ZN4Napi5Value4FromINS_8FunctionEEES0_P10napi_env__RKT_
FNDA:1,_ZN4Napi7details12WrapCallbackIZNS_10ObjectWrapI9LoRaCommsE13WrappedMethodIXadL_ZNS3_14SetLogWriteHWMERKNS_12CallbackInfoEEEEEP12napi_value__P10napi_env__P20napi_callback_info__EUlvE_EESA_T_
FNDA:1,_ZZN4Napi10ObjectWrapI9LoRaCommsE13WrappedMethodIXadL_ZNS1_20SetLogMaxMessageSizeERKNS_12CallbackInfoEEEEEP12napi_value__P10napi_env__P20napi_callback_info__ENKUlvE_clEv
FNDA:1,_ZN4Napi11AsyncWorker7OnErrorERKNS_5ErrorE
FNDA:0,_ZN4Napi11AsyncWorkerD0Ev
FNDA:856,_ZNK4Napi11AsyncWorker3EnvEv
FNDA:0,_ZNK4Napi5Error7MessageB5cxx11Ev
FNDA:0,_ZNK4Napi12CallbackInfo4DataEv
FNDA:5216,_ZNK4Napi5Value3EnvEv
FNDA:0,_ZNK4Napi5Value7IsEmptyEv
FNDA:856,_ZN4Napi11AsyncWorker8ReceiverEv
FNDA:15,_ZN4Napi11AsyncWorker9GetResultENS_3EnvE
FNDA:815,_ZN4Napi10ObjectWrapI9LoRaCommsE13WrappedMethodIXadL_ZNS1_20GetLogMaxMessageSizeERKNS_12CallbackInfoEEEEEP12napi_value__P10napi_env__P20napi_callback_info__
FNDA:0,_ZN4NapiL14CreateFunctionINS_10ObjectWrapI9LoRaCommsE18MethodCallbackDataIPFvRKNS_12CallbackInfoEEEEEE11napi_statusP10napi_env__PKcPFP12napi_value__SD_P20napi_callback_info__EPT_PSH_
FNDA:15,_ZNK4Napi9ReferenceINS_8FunctionEE3EnvEv
FNDA:1,_ZN4Napi10ObjectWrapI9LoRaCommsE12StaticMethodIXadL_ZNS1_5ResetERKNS_12CallbackInfoEEEEENS_23ClassPropertyDescriptorIS1_EEPKc24napi_property_attributesPv
FNDA:872,_ZZN4Napi11AsyncWorker14OnWorkCompleteENS_3EnvE11napi_statusENKUlvE_clEv
FNDA:17,_ZZN4Napi10ObjectWrapI9LoRaCommsE13WrappedMethodIXadL_ZNS1_18GetLogErrorMessageERKNS_12CallbackInfoEEEEEP12napi_value__P10napi_env__P20napi_callback_info__ENKUlvE_clEv
FNDA:872,_ZNK4Napi3Env18IsExceptionPendingEv
FNDA:0,_ZN4Napi7details12WrapCallbackIZNS_10ObjectWrapI9LoRaCommsE33InstanceVoidMethodCallbackWrapperEP10napi_env__P20napi_callback_info__EUlvE_EEP12napi_value__T_
FNDA:1758,_ZN4Napi12CallbackInfoC2EP10napi_env__P20napi_callback_info__
FNDA:0,_ZN4Napi10ObjectWrapI9LoRaCommsE29InstanceSetterCallbackWrapperEP10napi_env__P20napi_callback_info__
FNDA:1,_ZN4Napi10ObjectWrapI9LoRaCommsE12StaticMethodIXadL_ZNS1_20GetLogMaxMessageSizeERKNS_12CallbackInfoEEEEENS_23ClassPropertyDescriptorIS1_EEPKc24napi_property_attributesPv
FNDA:17,_ZN4Napi7details12WrapCallbackIZNS_10ObjectWrapI9LoRaCommsE13WrappedMethodIXadL_ZNS3_18GetLogErrorMessageERKNS_12CallbackInfoEEEEEP12napi_value__P10napi_env__P20napi_callback_info__EUlvE_EESA_T_
FNDA:16,_ZN4Napi4NameC2EP10napi_env__P12napi_value__
FNDA:0,_ZN4Napi7detailsL10AttachDataINS_10ObjectWrapI9LoRaCommsE20AccessorCallbackDataIMS3_FNS_5ValueERKNS_12CallbackInfoEEMS3_FvS9_RKS6_EEEEE11napi_statusP10napi_env__P12napi_value__PT_PFvSJ_PvSO_ESO_
FNDA:42,_ZN4Napi5Error3NewEP10napi_env__RKNSt7__cxx1112basic_stringIcSt11char_traitsIcESaIcEEE
FNDA:0,_ZN4Napi12CallbackInfo7SetDataEPv
FNDA:0,_ZN4Napi9ReferenceINS_6ObjectEE5ResetEv
FNDA:1,_ZNK4Napi8Function4CallEP12napi_value__RKSt16initializer_listIS2_E
FNDA:1,_ZN4Napi10ObjectWrapI9LoRaCommsE12StaticMethodIXadL_ZNS1_11StopLoggingERKNS_12CallbackInfoEEEEENS_23ClassPropertyDescriptorIS1_EEPKc24napi_property_attributesPv
FNDA:856,_ZNK4Napi8Function12MakeCallbackEP12napi_value__jPKS2_P20napi_async_context__
FNDA:1744,_ZN4Napi9ReferenceINS_8FunctionEED2Ev
FNDA:872,_ZN4Napi9ReferenceINS_8FunctionEEC2EOS2_
FNDA:797,_ZZN4Napi10ObjectWrapI9LoRaCommsE13WrappedMethodIXadL_ZNS1_17GetLogInfoMessageERKNS_12CallbackInfoEEEEEP12napi_value__P10napi_env__P20napi_callback_info__ENKUlvE_clEv
FNDA:1719,_ZN4Napi6Number3NewEP10napi_env__d
FNDA:872,_ZN4Napi20EscapableHandleScopeD2Ev
FNDA:872,_ZN4Napi7details12WrapCallbackIZNS_11AsyncWorker14OnWorkCompleteENS_3EnvE11napi_statusEUlvE_EEP12napi_value__T_
FNDA:15,_ZN4Napi7details12WrapCallbackIZNS_10ObjectWrapI9LoRaCommsE13WrappedMethodIXadL_ZNS3_12ResetLoggingERKNS_12CallbackInfoEEEEEP12napi_value__P10napi_env__P20napi_callback_info__EUlvE_EESA_T_
FNDA:0,_ZN4Napi7details12WrapCallbackIZNS_10ObjectWrapI9LoRaCommsE29InstanceGetterCallbackWrapperEP10napi_env__P20napi_callback_info__EUlvE_EEP12napi_value__T_
FNDA:0,_ZN4Napi9ReferenceINS_6ObjectEEC2Ev
FNDA:0,_ZZN4Napi7detailsL10AttachDataINS_10ObjectWrapI9LoRaCommsE20AccessorCallbackDataIPFNS_5ValueERKNS_12CallbackInfoEEPFvS9_RKS6_EEEEE11napi_statusP10napi_env__P12napi_value__PT_PFvSJ_PvSO_ESO_ENKUlSJ_SO_SO_E_clESJ_SO_SO_
FNDA:0,_ZN4Napi7details12WrapCallbackIZNS_10ObjectWrapI9LoRaCommsE27StaticMethodCallbackWrapperEP10napi_env__P20napi_callback_info__EUlvE_EEP12napi_value__T_
FNDA:1,_ZN4Napi10ObjectWrapI9LoRaCommsE12StaticMethodIXadL_ZNS1_12SetGWSendHWMERKNS_12CallbackInfoEEEEENS_23ClassPropertyDescriptorIS1_EEPKc24napi_property_attributesPv
FNDA:797,_ZN4Napi7details12WrapCallbackIZNS_10ObjectWrapI9LoRaCommsE13WrappedMethodIXadL_ZNS3_17GetLogInfoMessageERKNS_12CallbackInfoEEEEEP12napi_value__P10napi_env__P20napi_callback_info__EUlvE_EESA_T_
FNDA:872,_ZN4Napi11AsyncWorker14OnWorkCompleteENS_3EnvE11napi_status
FNDA:1,_ZN4Napi7details12WrapCallbackIZNS_14RegisterModuleEP10napi_env__P12napi_value__PFNS_6ObjectENS_3EnvES6_EEUlvE_EES5_T_
FNDA:1,_ZN4Napi10ObjectWrapI9LoRaCommsE13WrappedMethodIXadL_ZNS1_14SetLogWriteHWMERKNS_12CallbackInfoEEEEEP12napi_value__P10napi_env__P20napi_callback_info__
FNDA:14967,_ZN4Napi5ValueC2EP10napi_env__P12napi_value__
FNDA:1,_ZN4Napi14RegisterModuleEP10napi_env__P12napi_value__PFNS_6ObjectENS_3EnvES4_E
FNDA:856,_ZN4Napi6BufferIhEC2EP10napi_env__P12napi_value__
FNDA:2,_ZZN4Napi10ObjectWrapI9LoRaCommsE13WrappedMethodIXadL_ZNS1_12SetGWSendHWMERKNS_12CallbackInfoEEEEEP12napi_value__P10napi_env__P20napi_callback_info__ENKUlvE_clEv
FNDA:0,_ZZN4Napi10ObjectWrapI9LoRaCommsE29InstanceGetterCallbackWrapperEP10napi_env__P20napi_callback_info__ENKUlvE_clEv
FNDA:41,_ZN4Napi7details11vf_fallbackINS_5ValueEE4FromEP10napi_env__RKS2_
FNDA:2,_ZZN4Napi10ObjectWrapI9LoRaCommsE13WrappedMethodIXadL_ZNS1_16SetGWRecvTimeoutERKNS_12CallbackInfoEEEEEP12napi_value__P10napi_env__P20napi_callback_info__ENKUlvE_clEv
FNDA:1,_ZN4Napi10ObjectWrapI9LoRaCommsE12StaticMethodIXadL_ZNS1_20SetLogMaxMessageSizeERKNS_12CallbackInfoEEEEENS_23ClassPropertyDescriptorIS1_EEPKc24napi_property_attributesPv
FNDA:0,_ZZN4Napi7detailsL10AttachDataINS_10ObjectWrapI9LoRaCommsE18MethodCallbackDataIPFNS_5ValueERKNS_12CallbackInfoEEEEEE11napi_statusP10napi_env__P12napi_value__PT_PFvSF_PvSK_ESK_ENKUlSF_SK_SK_E_clESF_SK_SK_
FNDA:1,_ZN4Napi10ObjectWrapI9LoRaCommsE12StaticMethodIXadL_ZNS1_12StartLoggingERKNS_12CallbackInfoEEEEENS_23ClassPropertyDescriptorIS1_EEPKc24napi_property_attributesPv
FNDA:16,_ZN4Napi10ObjectWrapI9LoRaCommsE13WrappedMethodIXadL_ZNS1_12StartLoggingERKNS_12CallbackInfoEEEEEP12napi_value__P10napi_env__P20napi_callback_info__
FNDA:1,_ZN4Napi10ObjectWrapI9LoRaCommsE12StaticMethodIXadL_ZNS1_4StopERKNS_12CallbackInfoEEEEENS_23ClassPropertyDescriptorIS1_EEPKc24napi_property_attributesPv
FNDA:797,_ZN4Napi10ObjectWrapI9LoRaCommsE13WrappedMethodIXadL_ZNS1_17GetLogInfoMessageERKNS_12CallbackInfoEEEEEP12napi_value__P10napi_env__P20napi_callback_info__
FNDA:1,_ZN4Napi10ObjectWrapI9LoRaCommsE13WrappedMethodIXadL_ZNS1_11StopLoggingERKNS_12CallbackInfoEEEEEP12napi_value__P10napi_env__P20napi_callback_info__
FNDA:856,_ZN4Napi9ReferenceINS_6BufferIhEEED2Ev
FNDA:872,_ZN4Napi9ReferenceINS_6ObjectEE3NewERKS1_j
FNDA:0,_ZNK4Napi5Value2AsINS_6ObjectEEET_v
FNDA:2,_ZN4Napi7details12WrapCallbackIZNS_10ObjectWrapI9LoRaCommsE13WrappedMethodIXadL_ZNS3_16SetGWSendTimeoutERKNS_12CallbackInfoEEEEEP12napi_value__P10napi_env__P20napi_callback_info__EUlvE_EESA_T_
FNDA:0,_ZNK4Napi15ObjectReference3GetEPKc
FNDA:11304,_ZN4Napi3EnvC2EP10napi_env__
FNDA:0,_ZN4Napi7detailsL10AttachDataINS_10ObjectWrapI9LoRaCommsE20AccessorCallbackDataIPFNS_5ValueERKNS_12CallbackInfoEEPFvS9_RKS6_EEEEE11napi_statusP10napi_env__P12napi_value__PT_PFvSJ_PvSO_ESO_
FNDA:872,_ZN4Napi11AsyncWorker19OnAsyncWorkCompleteEP10napi_env__11napi_statusPv
FNDA:15,_ZN4Napi7details12WrapCallbackIZNS_10ObjectWrapI9LoRaCommsE13WrappedMethodIXadL_ZNS3_4StopERKNS_12CallbackInfoEEEEEP12napi_value__P10napi_env__P20napi_callback_info__EUlvE_EESA_T_
FNDA:23,_ZN4Napi10ObjectWrapI9LoRaCommsE13WrappedMethodIXadL_ZNS1_8RecvFromERKNS_12CallbackInfoEEEEEP12napi_value__P10napi_env__P20napi_callback_info__
FNDA:15,_ZZN4Napi10ObjectWrapI9LoRaCommsE13WrappedMethodIXadL_ZNS1_12ResetLoggingERKNS_12CallbackInfoEEEEEP12napi_value__P10napi_env__P20napi_callback_info__ENKUlvE_clEv
FNDA:1,_ZN4Napi7details12WrapCallbackIZNS_10ObjectWrapI9LoRaCommsE13WrappedMethodIXadL_ZNS3_18SetLogWriteTimeoutERKNS_12CallbackInfoEEEEEP12napi_value__P10napi_env__P20napi_callback_info__EUlvE_EESA_T_
FNDA:0,_ZN4Napi10ObjectWrapI9LoRaCommsEC2ERKNS_12CallbackInfoE
FNDA:0,_ZZN4Napi10ObjectWrapI9LoRaCommsE27StaticGetterCallbackWrapperEP10napi_env__P20napi_callback_info__ENKUlvE_clEv
FNDA:872,_ZN4Napi9ReferenceINS_8FunctionEEC2EP10napi_env__P10napi_ref__
FNDA:1,_ZZN4Napi10ObjectWrapI9LoRaCommsE13WrappedMethodIXadL_ZNS1_14SetLogWriteHWMERKNS_12CallbackInfoEEEEEP12napi_value__P10napi_env__P20napi_callback_info__ENKUlvE_clEv
FNDA:872,_ZN4Napi11AsyncWorkerC2ERKNS_6ObjectERKNS_8FunctionEPKcS3_
FNDA:955,_ZNK4Napi9ReferenceINS_6ObjectEE5ValueEv
FNDA:1,_ZNK4Napi6NumbercvjEv
FNDA:17,_ZN4Napi10ObjectWrapI9LoRaCommsE13WrappedMethodIXadL_ZNS1_18GetLogErrorMessageERKNS_12CallbackInfoEEEEEP12napi_value__P10napi_env__P20napi_callback_info__
FNDA:872,_ZN4Napi20EscapableHandleScopeC2ENS_3EnvE
FNDA:0,_ZN4Napi7details12WrapCallbackIZNS_10ObjectWrapI9LoRaCommsE27StaticSetterCallbackWrapperEP10napi_env__P20napi_callback_info__EUlvE_EEP12napi_value__T_
FNDA:0,_ZNK4Napi9ReferenceINS_6ObjectEE3EnvEv
FNF:239
FNH:172
DA:27,0
DA:33,0
DA:34,0
DA:35,0
DA:62,0
DA:64,0
DA:70,2631
DA:73,2631
DA:74,0
DA:75,0
DA:76,0
DA:251,1
DA:254,1
DA:255,3
DA:256,3
DA:257,1
DA:264,11304
DA:265,11304
DA:267,10393
DA:268,10393
DA:278,0
DA:280,0
DA:281,0
DA:282,0
DA:285,815
DA:287,815
DA:288,815
DA:289,1630
DA:292,872
DA:294,872
DA:295,872
DA:296,872
DA:374,14967
DA:375,14967
DA:377,10436
DA:378,10436
DA:396,5216
DA:397,5216
DA:400,0
DA:401,0
DA:537,3537
DA:538,3537
DA:601,1719
DA:603,1719
DA:604,1719
DA:605,3438
DA:611,3512
DA:612,3512
DA:614,1786
DA:615,1786
DA:618,1
DA:619,1
DA:634,1792
DA:636,1792
DA:637,1792
DA:638,1792
DA:641,1
DA:643,1
DA:644,1
DA:645,1
DA:767,16
DA:768,16
DA:813,16
DA:814,16
DA:816,0
DA:817,0
DA:824,16
DA:826,16
DA:827,16
DA:829,16
DA:830,16
DA:831,16
DA:832,16
DA:833,16
DA:834,32
DA:931,42
DA:932,42
DA:951,42
DA:961,42
DA:1006,1744
DA:1008,1744
DA:1009,1744
DA:1010,3488
DA:1016,5301
DA:1017,5301
DA:1107,0
DA:1109,0
DA:1110,0
DA:1111,0
DA:1133,42
DA:1135,42
DA:1136,42
DA:1137,42
DA:1631,856
DA:1632,856
DA:1633,856
DA:1741,856
DA:1742,856
DA:1743,1712
DA:1744,856
DA:1745,856
DA:1746,856
DA:1788,0
DA:1794,0
DA:1795,0
DA:1796,0
DA:1799,0
DA:1881,1745
DA:1882,1745
DA:1900,1
DA:1901,1
DA:1904,15
DA:1905,15
DA:1908,16
DA:1910,32
DA:1911,16
DA:1912,16
DA:1913,32
DA:1916,856
DA:1920,856
DA:1930,856
DA:1936,1712
DA:1937,856
DA:1938,856
DA:1939,1712
DA:2075,856
DA:2076,856
DA:2077,856
DA:2085,856
DA:2086,856
DA:2087,856
DA:2091,856
DA:2092,856
DA:2093,856
DA:2097,1712
DA:2101,1712
DA:2104,856
DA:2105,856
DA:2106,856
DA:2107,856
DA:2109,1712
DA:2115,0
DA:2117,0
DA:2123,0
DA:2124,0
DA:2126,0
DA:2127,0
DA:2130,0
DA:2131,0
DA:2132,0
DA:2135,0
DA:2136,0
DA:2139,0
DA:2144,0
DA:2146,0
DA:2147,0
DA:2151,0
DA:2152,0
DA:2153,0
DA:2154,0
DA:2155,0
DA:2157,0
DA:2160,0
DA:2167,42
DA:2168,42
DA:2171,0
DA:2172,0
DA:2178,42
DA:2179,42
DA:2180,42
DA:2184,42
DA:2186,42
DA:2214,0
DA:2215,0
DA:2218,0
DA:2220,0
DA:2228,0
DA:2231,0
DA:2232,0
DA:2233,0
DA:2239,0
DA:2242,0
DA:2243,0
DA:2249,0
DA:2253,0
DA:2254,0
DA:2260,42
DA:2265,42
DA:2266,42
DA:2269,42
DA:2270,42
DA:2272,84
DA:2308,2600
DA:2309,2600
DA:2310,2600
DA:2312,2600
DA:2313,0
DA:2317,2600
DA:2318,2600
DA:2320,2600
DA:2325,0
DA:2326,0
DA:2329,2642
DA:2330,2642
DA:2331,2642
DA:2334,4386
DA:2335,4386
DA:2336,2642
DA:2337,2642
DA:2340,2642
DA:2342,4386
DA:2345,1744
DA:2346,1744
DA:2347,1744
DA:2348,1744
DA:2349,1744
DA:2350,1744
DA:2353,0
DA:2354,0
DA:2355,0
DA:2356,0
DA:2357,0
DA:2358,0
DA:2359,0
DA:2360,0
DA:2361,0
DA:2395,15
DA:2396,15
DA:2400,16
DA:2401,16
DA:2405,1827
DA:2406,1827
DA:2407,0
DA:2411,1827
DA:2412,1827
DA:2413,1827
DA:2433,0
DA:2434,0
DA:2435,0
DA:2436,0
DA:2437,0
DA:2439,0
DA:2472,856
DA:2473,856
DA:2476,872
DA:2477,872
DA:2480,872
DA:2481,872
DA:2491,42
DA:2492,42
DA:2494,872
DA:2495,872
DA:2496,872
DA:2516,0
DA:2517,0
DA:2518,0
DA:2531,41
DA:2532,41
DA:2533,41
DA:2534,41
DA:2622,872
DA:2623,872
DA:2624,872
DA:2664,1
DA:2666,2
DA:2667,1
DA:2668,1
DA:2669,0
DA:2671,1
DA:2674,15
DA:2676,30
DA:2677,15
DA:2678,15
DA:2679,0
DA:2681,15
DA:2694,856
DA:2698,1712
DA:2699,856
DA:2700,856
DA:2701,0
DA:2703,856
DA:2745,1758
DA:2746,1758
DA:2747,1758
DA:2748,1758
DA:2749,1758
DA:2750,1758
DA:2752,1758
DA:2755,0
DA:2756,0
DA:2758,0
DA:2759,0
DA:2761,1758
DA:2763,3516
DA:2764,1758
DA:2765,0
DA:2767,1758
DA:2780,815
DA:2781,815
DA:2788,3537
DA:2789,7074
DA:2792,0
DA:2793,0
DA:2794,0
DA:2796,0
DA:2799,0
DA:2800,0
DA:2803,0
DA:2804,0
DA:2805,0
DA:3144,0
DA:3145,0
DA:3146,0
DA:3149,0
DA:3150,0
DA:3152,0
DA:3153,0
DA:3154,0
DA:3157,0
DA:3160,0
DA:3161,0
DA:3164,0
DA:3165,0
DA:3168,0
DA:3171,0
DA:3173,0
DA:3174,0
DA:3175,0
DA:3180,1
DA:3186,2
DA:3196,25
DA:3197,24
DA:3198,24
DA:3199,24
DA:3200,0
DA:3203,0
DA:3205,0
DA:3206,0
DA:3207,0
DA:3208,24
DA:3209,0
DA:3212,0
DA:3214,0
DA:3215,0
DA:3216,0
DA:3221,2
DA:3227,1
DA:3229,1
DA:3234,25
DA:3235,24
DA:3237,24
DA:3238,24
DA:3239,0
DA:3241,0
DA:3242,0
DA:3243,24
DA:3244,24
DA:3245,0
DA:3247,0
DA:3248,0
DA:3249,24
DA:3250,0
DA:3251,0
DA:3253,0
DA:3254,0
DA:3255,0
DA:3256,0
DA:3258,0
DA:3259,0
DA:3264,2
DA:3268,1
DA:3273,2
DA:3276,1
DA:3277,1
DA:3359,16
DA:3363,16
DA:3364,16
DA:3365,16
DA:3366,16
DA:3367,16
DA:3368,16
DA:3387,1
DA:3391,1
DA:3392,1
DA:3393,1
DA:3394,1
DA:3395,1
DA:3396,1
DA:3676,7
DA:3678,7
DA:3679,7
DA:3680,7
DA:3681,7
DA:3682,14
DA:3720,0
DA:3723,0
DA:3727,0
DA:3728,0
DA:3730,0
DA:3731,0
DA:3732,0
DA:3733,0
DA:3736,0
DA:3737,0
DA:3738,0
DA:3740,0
DA:3751,0
DA:3754,0
DA:3758,0
DA:3761,0
DA:3762,0
DA:3764,0
DA:3765,0
DA:3766,0
DA:3767,0
DA:3768,0
DA:3772,0
DA:3775,0
DA:3776,0
DA:3778,0
DA:3779,0
DA:3780,0
DA:3781,0
DA:3785,0
DA:3788,0
DA:3789,0
DA:3791,0
DA:3792,0
DA:3793,0
DA:3794,0
DA:3798,0
DA:3801,0
DA:3802,0
DA:3804,0
DA:3805,0
DA:3806,0
DA:3807,0
DA:3808,0
DA:3812,0
DA:3815,0
DA:3816,0
DA:3818,0
DA:3819,0
DA:3820,0
DA:3821,0
DA:3822,0
DA:3823,0
DA:3824,0
DA:3828,0
DA:3831,0
DA:3832,0
DA:3834,0
DA:3835,0
DA:3836,0
DA:3837,0
DA:3838,0
DA:3839,0
DA:3843,0
DA:3846,0
DA:3847,0
DA:3849,0
DA:3850,0
DA:3851,0
DA:3852,0
DA:3853,0
DA:3854,0
DA:3858,0
DA:3861,0
DA:3862,0
DA:3864,0
DA:3865,0
DA:3866,0
DA:3867,0
DA:3868,0
DA:3869,0
DA:3870,0
DA:3874,0
DA:3875,0
DA:3876,0
DA:3877,0
DA:3878,0
DA:3882,943
DA:3883,1886
DA:3884,943
DA:3885,943
DA:3886,943
DA:3891,815
DA:3892,815
DA:3893,815
DA:3894,815
DA:3947,913
DA:3948,913
DA:3949,913
DA:3950,913
DA:3952,1826
DA:3953,913
DA:3954,913
DA:3957,913
DA:3975,872
DA:3976,872
DA:3977,872
DA:3978,872
DA:3980,1744
DA:3981,872
DA:3982,872
DA:3985,872
DA:3991,872
DA:3992,872
DA:3995,872
DA:3997,872
DA:3998,872
DA:3999,1744
DA:4091,872
DA:4092,872
DA:4093,872
DA:4095,872
DA:4096,872
DA:4097,872
DA:4098,872
DA:4100,872
DA:4102,872
DA:4103,872
DA:4106,872
DA:4107,872
DA:4123,872
DA:4126,872
DA:4127,0
DA:4130,872
DA:4132,872
DA:4134,872
DA:4136,872
DA:4138,872
DA:4139,872
DA:4167,872
DA:4168,872
DA:4169,872
DA:4170,872
DA:4172,872
DA:4174,872
DA:4175,872
DA:4176,872
DA:4205,856
DA:4206,856
DA:4209,872
DA:4210,872
DA:4211,872
DA:4212,872
DA:4219,856
DA:4220,856
DA:4223,856
DA:4224,856
DA:4231,15
DA:4232,15
DA:4233,15
DA:4235,15
DA:4237,1
DA:4238,1
DA:4239,1
DA:4241,1
DA:4243,1
DA:4244,1
DA:4245,1
DA:4247,15
DA:4248,15
DA:4254,872
DA:4255,872
DA:4256,872
DA:4257,872
DA:4262,872
DA:4265,872
DA:4266,0
DA:4267,0
DA:4272,872
DA:4274,872
DA:4277,872
DA:4278,872
DA:4279,872
DA:4280,872
DA:4281,872
DA:4282,1744
DA:4283,872
DA:4284,872
DA:4285,871
DA:4288,1
DA:4290,872
DA:4293,872
DA:4294,872
DA:4296,872
LF:588
LH:353
end_of_record
TN:
SF:/home/ubuntu/node-lora-comms/node_modules/node-addon-api/napi.h
FN:1641,_ZN4Napi23ClassPropertyDescriptorI9LoRaCommsEC2E24napi_property_descriptor
FNDA:24,_ZN4Napi23ClassPropertyDescriptorI9LoRaCommsEC2E24napi_property_descriptor
FNF:1
FNH:1
DA:1641,24
LF:1
LH:1
end_of_record
TN:
SF:/home/ubuntu/node-lora-comms/src/lora_comms.cc
FN:56,_Z10ErrnoErrorRKN4Napi3EnvEi
FN:70,_ZN16StartAsyncWorkerC2ERKN4Napi8FunctionERKNS0_6StringE
FN:78,_ZN16StartAsyncWorker7ExecuteEv
FN:92,_ZN9LoRaComms5StartERKN4Napi12CallbackInfoE
FN:99,_ZN9LoRaComms4StopERKN4Napi12CallbackInfoE
FN:104,_ZN9LoRaComms5ResetERKN4Napi12CallbackInfoE
FN:112,_ZN16CommsAsyncWorkerC2ERKN4Napi8FunctionERKNS0_6BufferIhEERK7timeval
FN:135,_ZN16CommsAsyncWorker7ExecuteEv
FN:144,_ZN16CommsAsyncWorker4OnOKEv
FN:169,_ZN15LinkAsyncWorkerC2ERKN4Napi8FunctionEiRKNS0_6BufferIhEERK7timeval
FN:194,_ZN19RecvFromAsyncWorkerC2ERKN4Napi8FunctionEiRKNS0_6BufferIhEERK7timeval
FN:203,_ZN19RecvFromAsyncWorker11CommunicateEv
FN:209,_ZN9LoRaComms8RecvFromERKN4Napi12CallbackInfoE
FN:221,_ZN17SendToAsyncWorkerC2ERKN4Napi8FunctionEiRKNS0_6BufferIhEEiRK7timeval
FN:232,_ZN17SendToAsyncWorker11CommunicateEv
FN:241,_ZN9LoRaComms6SendToERKN4Napi12CallbackInfoE
FN:251,_ZN9LoRaComms12SetGWSendHWMERKN4Napi12CallbackInfoE
FN:256,_ZN9LoRaComms16SetGWSendTimeoutERKN4Napi12CallbackInfoE
FN:262,_ZN9LoRaComms16SetGWRecvTimeoutERKN4Napi12CallbackInfoE
FN:268,_ZN9LoRaComms12StartLoggingERKN4Napi12CallbackInfoE
FN:273,_ZN9LoRaComms11StopLoggingERKN4Napi12CallbackInfoE
FN:279,_ZN9LoRaComms12ResetLoggingERKN4Napi12CallbackInfoE
FN:287,_ZN14LogAsyncWorkerC2ERKN4Napi8FunctionEPFiPcjPK7timevalERKNS0_6BufferIhEERS6_
FN:297,_ZN14LogAsyncWorker11CommunicateEv
FN:306,_ZN9LoRaComms17GetLogInfoMessageERKN4Napi12CallbackInfoE
FN:315,_ZN9LoRaComms18GetLogErrorMessageERKN4Napi12CallbackInfoE
FN:324,_ZN9LoRaComms14SetLogWriteHWMERKN4Napi12CallbackInfoE
FN:329,_ZN9LoRaComms18SetLogWriteTimeoutERKN4Napi12CallbackInfoE
FN:335,_ZN9LoRaComms20SetLogMaxMessageSizeERKN4Napi12CallbackInfoE
FN:340,_ZN9LoRaComms20GetLogMaxMessageSizeERKN4Napi12CallbackInfoE
FN:347,_ZN9LoRaComms7TimeValERKN4Napi12CallbackInfoEj
FN:356,_ZN9LoRaComms8CommLinkERKN4Napi12CallbackInfoEj
FN:362,_ZN9LoRaComms10InitializeEN4Napi3EnvENS0_6ObjectE
FN:401,_Z10InitializeN4Napi3EnvENS_6ObjectE
FN:406,_Z17__napi_InitializeP10napi_env__P12napi_value__
FN:406,_register_lora_comms
FNDA:815,_ZN9LoRaComms20GetLogMaxMessageSizeERKN4Napi12CallbackInfoE
FNDA:16,_ZN9LoRaComms12StartLoggingERKN4Napi12CallbackInfoE
FNDA:42,_ZN15LinkAsyncWorkerC2ERKN4Napi8FunctionEiRKNS0_6BufferIhEERK7timeval
FNDA:861,_ZN9LoRaComms7TimeValERKN4Napi12CallbackInfoEj
FNDA:23,_ZN9LoRaComms8RecvFromERKN4Napi12CallbackInfoE
FNDA:23,_ZN19RecvFromAsyncWorker11CommunicateEv
FNDA:15,_ZN9LoRaComms12ResetLoggingERKN4Napi12CallbackInfoE
FNDA:1,_ZN9LoRaComms10InitializeEN4Napi3EnvENS0_6ObjectE
FNDA:1,_Z17__napi_InitializeP10napi_env__P12napi_value__
FNDA:41,_Z10ErrnoErrorRKN4Napi3EnvEi
FNDA:2,_ZN9LoRaComms16SetGWRecvTimeoutERKN4Napi12CallbackInfoE
FNDA:15,_ZN9LoRaComms4StopERKN4Napi12CallbackInfoE
FNDA:16,_ZN16StartAsyncWorker7ExecuteEv
FNDA:1,_ZN9LoRaComms18SetLogWriteTimeoutERKN4Napi12CallbackInfoE
FNDA:19,_ZN17SendToAsyncWorkerC2ERKN4Napi8FunctionEiRKNS0_6BufferIhEEiRK7timeval
FNDA:15,_ZN9LoRaComms5ResetERKN4Napi12CallbackInfoE
FNDA:1,_ZN9LoRaComms11StopLoggingERKN4Napi12CallbackInfoE
FNDA:856,_ZN16CommsAsyncWorker4OnOKEv
FNDA:2,_ZN9LoRaComms12SetGWSendHWMERKN4Napi12CallbackInfoE
FNDA:19,_ZN9LoRaComms6SendToERKN4Napi12CallbackInfoE
FNDA:814,_ZN14LogAsyncWorkerC2ERKN4Napi8FunctionEPFiPcjPK7timevalERKNS0_6BufferIhEERS6_
FNDA:856,_ZN16CommsAsyncWorker7ExecuteEv
FNDA:16,_ZN9LoRaComms5StartERKN4Napi12CallbackInfoE
FNDA:1,_ZN9LoRaComms14SetLogWriteHWMERKN4Napi12CallbackInfoE
FNDA:19,_ZN17SendToAsyncWorker11CommunicateEv
FNDA:814,_ZN14LogAsyncWorker11CommunicateEv
FNDA:1,_register_lora_comms
FNDA:1,_ZN9LoRaComms20SetLogMaxMessageSizeERKN4Napi12CallbackInfoE
FNDA:797,_ZN9LoRaComms17GetLogInfoMessageERKN4Napi12CallbackInfoE
FNDA:17,_ZN9LoRaComms18GetLogErrorMessageERKN4Napi12CallbackInfoE
FNDA:1,_Z10InitializeN4Napi3EnvENS_6ObjectE
FNDA:23,_ZN19RecvFromAsyncWorkerC2ERKN4Napi8FunctionEiRKNS0_6BufferIhEERK7timeval
FNDA:2,_ZN9LoRaComms16SetGWSendTimeoutERKN4Napi12CallbackInfoE
FNDA:6,_ZN9LoRaComms8CommLinkERKN4Napi12CallbackInfoEj
FNDA:856,_ZN16CommsAsyncWorkerC2ERKN4Napi8FunctionERKNS0_6BufferIhEERK7timeval
FNDA:16,_ZN16StartAsyncWorkerC2ERKN4Napi8FunctionERKNS0_6StringE
FNF:36
FNH:36
DA:56,41
DA:58,41
DA:59,41
DA:62,41
DA:63,41
DA:64,82
DA:70,16
DA:71,16
DA:73,16
DA:75,16
DA:78,16
DA:80,16
DA:82,1
DA:85,16
DA:86,16
DA:92,16
DA:94,16
DA:95,16
DA:96,16
DA:97,16
DA:99,15
DA:101,15
DA:102,15
DA:104,15
DA:106,15
DA:107,15
DA:112,856
DA:114,856
DA:116,1712
DA:117,1712
DA:119,856
DA:121,856
DA:135,856
DA:137,856
DA:138,856
DA:140,41
DA:142,856
DA:144,856
DA:146,856
DA:147,856
DA:148,856
DA:149,0
DA:151,897
DA:152,1712
DA:153,2568
DA:154,856
DA:169,42
DA:172,42
DA:174,42
DA:176,42
DA:194,23
DA:197,23
DA:198,23
DA:200,23
DA:203,23
DA:205,23
DA:209,23
DA:211,23
DA:212,23
DA:213,23
DA:214,46
DA:215,23
DA:216,23
DA:221,19
DA:225,19
DA:227,19
DA:229,19
DA:232,19
DA:234,19
DA:241,19
DA:243,19
DA:244,19
DA:245,19
DA:246,19
DA:247,38
DA:248,19
DA:249,19
DA:251,2
DA:253,2
DA:254,2
DA:256,2
DA:258,2
DA:259,2
DA:260,2
DA:262,2
DA:264,2
DA:265,2
DA:266,2
DA:268,16
DA:270,16
DA:271,16
DA:273,1
DA:275,1
DA:276,1
DA:277,1
DA:279,15
DA:281,15
DA:282,15
DA:287,814
DA:290,814
DA:292,814
DA:294,814
DA:297,814
DA:299,814
DA:306,797
DA:308,797
DA:310,797
DA:311,797
DA:312,797
DA:313,797
DA:315,17
DA:317,17
DA:319,17
DA:320,17
DA:321,17
DA:322,17
DA:324,1
DA:326,1
DA:327,1
DA:329,1
DA:331,1
DA:332,1
DA:333,1
DA:335,1
DA:337,1
DA:338,1
DA:340,815
DA:342,815
DA:347,861
DA:351,861
DA:352,861
DA:353,861
DA:356,6
DA:359,6
DA:362,1
DA:364,1
DA:366,1
DA:367,1
DA:368,1
DA:370,1
DA:371,1
DA:373,1
DA:374,1
DA:376,1
DA:377,1
DA:378,1
DA:380,1
DA:381,1
DA:382,1
DA:383,1
DA:384,1
DA:385,1
DA:386,1
DA:387,1
DA:388,1
DA:390,1
DA:391,1
DA:392,1
DA:394,1
DA:395,1
DA:396,1
DA:398,1
DA:401,1
DA:403,1
DA:406,2
LF:165
LH:164
end_of_record
TN:
SF:/usr/include/c++/9/bits/alloc_traits.h
FN:443,_ZNSt16allocator_traitsISaI24napi_property_descriptorEE8allocateERS1_j
FN:469,_ZNSt16allocator_traitsISaIP12napi_value__EE10deallocateERS2_PS1_j
FN:469,_ZNSt16allocator_traitsISaI24napi_property_descriptorEE10deallocateERS1_PS0_j
FN:505,_ZNSt16allocator_traitsISaI24napi_property_descriptorEE8max_sizeERKS1_
FNDA:1,_ZNSt16allocator_traitsISaI24napi_property_descriptorEE8max_sizeERKS1_
FNDA:1,_ZNSt16allocator_traitsISaI24napi_property_descriptorEE10deallocateERS1_PS0_j
FNDA:1,_ZNSt16allocator_traitsISaI24napi_property_descriptorEE8allocateERS1_j
FNDA:0,_ZNSt16allocator_traitsISaIP12napi_value__EE10deallocateERS2_PS1_j
FNF:4
FNH:3
DA:443,1
DA:444,1
DA:469,1
DA:470,1
DA:505,1
DA:506,1
LF:6
LH:6
end_of_record
TN:
SF:/usr/include/c++/9/bits/allocator.h
FN:138,_ZNSaIP12napi_value__EC2Ev
FN:138,_ZNSaI24napi_property_descriptorEC2Ev
FN:141,_ZNSaI24napi_property_descriptorEC2ERKS0_
FN:153,_ZNSaIP12napi_value__ED2Ev
FN:153,_ZNSaI24napi_property_descriptorED2Ev
FNDA:15,_ZNSaIP12napi_value__EC2Ev
FNDA:15,_ZNSaIP12napi_value__ED2Ev
FNDA:2,_ZNSaI24napi_property_descriptorEC2ERKS0_
FNDA:1,_ZNSaI24napi_property_descriptorEC2Ev
FNDA:3,_ZNSaI24napi_property_descriptorED2Ev
FNF:5
FNH:5
DA:138,16
DA:141,2
DA:142,2
DA:153,18
LF:4
LH:4
end_of_record
TN:
SF:/usr/include/c++/9/bits/basic_string.h
FN:243,_ZNSt7__cxx1112basic_stringIcSt11char_traitsIcESaIcEE16_M_construct_auxIPcEEvT_S7_St12__false_type
FN:243,_ZNSt7__cxx1112basic_stringIcSt11char_traitsIcESaIcEE16_M_construct_auxIPKcEEvT_S8_St12__false_type
FN:263,_ZNSt7__cxx1112basic_stringIcSt11char_traitsIcESaIcEE12_M_constructIPcEEvT_S7_
FN:263,_ZNSt7__cxx1112basic_stringIcSt11char_traitsIcESaIcEE12_M_constructIPKcEEvT_S8_
FN:625,_ZNSt7__cxx1112basic_stringIcSt11char_traitsIcESaIcEEC2IPcvEET_S7_RKS3_
FN:6546,_ZNSt7__cxx119to_stringEi
FNDA:0,_ZNSt7__cxx1112basic_stringIcSt11char_traitsIcESaIcEE12_M_constructIPKcEEvT_S8_
FNDA:0,_ZNSt7__cxx1112basic_stringIcSt11char_traitsIcESaIcEE16_M_construct_auxIPKcEEvT_S8_St12__false_type
FNDA:0,_ZNSt7__cxx1112basic_stringIcSt11char_traitsIcESaIcEEC2IPcvEET_S7_RKS3_
FNDA:0,_ZNSt7__cxx119to_stringEi
FNDA:0,_ZNSt7__cxx1112basic_stringIcSt11char_traitsIcESaIcEE16_M_construct_auxIPcEEvT_S7_St12__false_type
FNDA:0,_ZNSt7__cxx1112basic_stringIcSt11char_traitsIcESaIcEE12_M_constructIPcEEvT_S7_
FNF:6
FNH:0
DA:243,0
DA:247,0
DA:248,0
DA:263,0
DA:266,0
DA:267,0
DA:625,0
DA:627,0
DA:628,0
DA:6546,0
DA:6548,0
LF:11
LH:0
end_of_record
TN:
SF:/usr/include/c++/9/bits/basic_string.tcc
FN:206,_ZNSt7__cxx1112basic_stringIcSt11char_traitsIcESaIcEE12_M_constructIPKcEEvT_S8_St20forward_iterator_tag
FN:206,_ZNSt7__cxx1112basic_stringIcSt11char_traitsIcESaIcEE12_M_constructIPcEEvT_S7_St20forward_iterator_tag
FNDA:0,_ZNSt7__cxx1112basic_stringIcSt11char_traitsIcESaIcEE12_M_constructIPcEEvT_S7_St20forward_iterator_tag
FNDA:0,_ZNSt7__cxx1112basic_stringIcSt11char_traitsIcESaIcEE12_M_constructIPKcEEvT_S8_St20forward_iterator_tag
FNF:2
FNH:0
DA:206,0
DA:211,0
DA:212,0
DA:215,0
DA:217,0
DA:219,0
DA:220,0
DA:225,0
DA:226,0
DA:228,0
DA:229,0
DA:232,0
DA:233,0
LF:13
LH:0
end_of_record
TN:
SF:/usr/include/c++/9/bits/char_traits.h
FN:329,_ZNSt11char_traitsIcE6lengthEPKc
FNDA:0,_ZNSt11char_traitsIcE6lengthEPKc
FNF:1
FNH:0
DA:329,0
DA:335,0
LF:2
LH:0
end_of_record
TN:
SF:/usr/include/c++/9/bits/exception.h
FN:63,_ZNSt9exceptionC2Ev
FNDA:42,_ZNSt9exceptionC2Ev
FNF:1
FNH:1
DA:63,42
LF:1
LH:1
end_of_record
TN:
SF:/usr/include/c++/9/bits/move.h
FN:99,_ZSt4moveIRSaIcEEONSt16remove_referenceIT_E4typeEOS3_
FN:99,_ZSt4moveIRN4Napi9ReferenceINS0_8FunctionEEEEONSt16remove_referenceIT_E4typeEOS6_
FN:99,_ZSt4moveIRN4Napi9ReferenceINS0_6ObjectEEEEONSt16remove_referenceIT_E4typeEOS6_
FNDA:872,_ZSt4moveIRN4Napi9ReferenceINS0_8FunctionEEEEONSt16remove_referenceIT_E4typeEOS6_
FNDA:872,_ZSt4moveIRN4Napi9ReferenceINS0_6ObjectEEEEONSt16remove_referenceIT_E4typeEOS6_
FNDA:0,_ZSt4moveIRSaIcEEONSt16remove_referenceIT_E4typeEOS3_
FNF:3
FNH:2
DA:99,1744
DA:100,1744
LF:2
LH:2
end_of_record
TN:
SF:/usr/include/c++/9/bits/stl_algobase.h
FN:198,_ZSt3minIjERKT_S2_S2_
FN:280,_ZSt12__niter_baseIP24napi_property_descriptorET_S2_
FN:295,_ZSt12__niter_wrapIP24napi_property_descriptorET_RKS2_S2_
FN:756,_ZSt10__fill_n_aIP24napi_property_descriptorjS0_EN9__gnu_cxx11__enable_ifIXntsrSt11__is_scalarIT1_E7__valueET_E6__typeES7_T0_RKS5_
FN:802,_ZSt6fill_nIP24napi_property_descriptorjS0_ET_S2_T0_RKT1_
FNDA:1,_ZSt12__niter_baseIP24napi_property_descriptorET_S2_
FNDA:1,_ZSt6fill_nIP24napi_property_descriptorjS0_ET_S2_T0_RKT1_
FNDA:1,_ZSt3minIjERKT_S2_S2_
FNDA:1,_ZSt10__fill_n_aIP24napi_property_descriptorjS0_EN9__gnu_cxx11__enable_ifIXntsrSt11__is_scalarIT1_E7__valueET_E6__typeES7_T0_RKS5_
FNDA:1,_ZSt12__niter_wrapIP24napi_property_descriptorET_RKS2_S2_
FNF:5
FNH:5
DA:198,1
DA:203,1
DA:204,0
DA:205,1
DA:280,1
DA:282,1
DA:295,1
DA:296,1
DA:756,1
DA:758,1
DA:759,25
DA:760,24
DA:761,1
DA:802,1
DA:808,1
DA:809,1
LF:16
LH:15
end_of_record
TN:
SF:/usr/include/c++/9/bits/stl_construct.h
FN:117,_ZNSt12_Destroy_auxILb1EE9__destroyIPP12napi_value__EEvT_S5_
FN:117,_ZNSt12_Destroy_auxILb1EE9__destroyIP24napi_property_descriptorEEvT_S4_
FN:127,_ZSt8_DestroyIPP12napi_value__EvT_S3_
FN:127,_ZSt8_DestroyIP24napi_property_descriptorEvT_S2_
FN:203,_ZSt8_DestroyIP24napi_property_descriptorS0_EvT_S2_RSaIT0_E
FN:203,_ZSt8_DestroyIPP12napi_value__S1_EvT_S3_RSaIT0_E
FNDA:15,_ZSt8_DestroyIPP12napi_value__EvT_S3_
FNDA:15,_ZNSt12_Destroy_auxILb1EE9__destroyIPP12napi_value__EEvT_S5_
FNDA:1,_ZSt8_DestroyIP24napi_property_descriptorS0_EvT_S2_RSaIT0_E
FNDA:15,_ZSt8_DestroyIPP12napi_value__S1_EvT_S3_RSaIT0_E
FNDA:1,_ZNSt12_Destroy_auxILb1EE9__destroyIP24napi_property_descriptorEEvT_S4_
FNDA:1,_ZSt8_DestroyIP24napi_property_descriptorEvT_S2_
FNF:6
FNH:6
DA:117,16
DA:127,16
DA:137,16
DA:138,16
DA:203,16
DA:206,16
DA:207,16
LF:7
LH:7
end_of_record
TN:
SF:/usr/include/c++/9/bits/stl_iterator_base_funcs.h
FN:98,_ZSt10__distanceIPcENSt15iterator_traitsIT_E15difference_typeES2_S2_St26random_access_iterator_tag
FN:98,_ZSt10__distanceIPKcENSt15iterator_traitsIT_E15difference_typeES3_S3_St26random_access_iterator_tag
FN:138,_ZSt8distanceIPKcENSt15iterator_traitsIT_E15difference_typeES3_S3_
FN:138,_ZSt8distanceIPcENSt15iterator_traitsIT_E15difference_typeES2_S2_
FNDA:0,_ZSt10__distanceIPcENSt15iterator_traitsIT_E15difference_typeES2_S2_St26random_access_iterator_tag
FNDA:0,_ZSt8distanceIPKcENSt15iterator_traitsIT_E15difference_typeES3_S3_
FNDA:0,_ZSt10__distanceIPKcENSt15iterator_traitsIT_E15difference_typeES3_S3_St26random_access_iterator_tag
FNDA:0,_ZSt8distanceIPcENSt15iterator_traitsIT_E15difference_typeES2_S2_
FNF:4
FNH:0
DA:98,0
DA:104,0
DA:138,0
DA:141,0
DA:142,0
LF:5
LH:0
end_of_record
TN:
SF:/usr/include/c++/9/bits/stl_iterator_base_types.h
FN:205,_ZSt19__iterator_categoryIPcENSt15iterator_traitsIT_E17iterator_categoryERKS2_
FN:205,_ZSt19__iterator_categoryIPKcENSt15iterator_traitsIT_E17iterator_categoryERKS3_
FNDA:0,_ZSt19__iterator_categoryIPKcENSt15iterator_traitsIT_E17iterator_categoryERKS3_
FNDA:0,_ZSt19__iterator_categoryIPcENSt15iterator_traitsIT_E17iterator_categoryERKS2_
FNF:2
FNH:0
DA:205,0
DA:206,0
LF:2
LH:0
end_of_record
TN:
SF:/usr/include/c++/9/bits/stl_uninitialized.h
FN:561,_ZNSt27__uninitialized_default_n_1ILb1EE18__uninit_default_nIP24napi_property_descriptorjEET_S4_T0_
FN:592,_ZSt25__uninitialized_default_nIP24napi_property_descriptorjET_S2_T0_
FN:661,_ZSt27__uninitialized_default_n_aIP24napi_property_descriptorjS0_ET_S2_T0_RSaIT1_E
FNDA:1,_ZSt25__uninitialized_default_nIP24napi_property_descriptorjET_S2_T0_
FNDA:1,_ZSt27__uninitialized_default_n_aIP24napi_property_descriptorjS0_ET_S2_T0_RSaIT1_E
FNDA:1,_ZNSt27__uninitialized_default_n_1ILb1EE18__uninit_default_nIP24napi_property_descriptorjEET_S4_T0_
FNF:3
FNH:3
DA:561,1
DA:566,1
DA:592,1
DA:597,1
DA:601,1
DA:661,1
DA:663,1
LF:7
LH:7
end_of_record
TN:
SF:/usr/include/c++/9/bits/stl_vector.h
FN:94,_ZNSt12_Vector_baseI24napi_property_descriptorSaIS0_EE17_Vector_impl_dataC2Ev
FN:94,_ZNSt12_Vector_baseIP12napi_value__SaIS1_EE17_Vector_impl_dataC2Ev
FN:128,_ZNSt12_Vector_baseIP12napi_value__SaIS1_EE12_Vector_implC2Ev
FN:133,_ZNSt12_Vector_baseI24napi_property_descriptorSaIS0_EE12_Vector_implC2ERKS1_
FN:273,_ZNSt12_Vector_baseI24napi_property_descriptorSaIS0_EE19_M_get_Tp_allocatorEv
FN:273,_ZNSt12_Vector_baseIP12napi_value__SaIS1_EE19_M_get_Tp_allocatorEv
FN:285,_ZNSt12_Vector_baseIP12napi_value__SaIS1_EEC2Ev
FN:300,_ZNSt12_Vector_baseI24napi_property_descriptorSaIS0_EEC2EjRKS1_
FN:330,_ZNSt12_Vector_baseI24napi_property_descriptorSaIS0_EED2Ev
FN:330,_ZNSt12_Vector_baseIP12napi_value__SaIS1_EED2Ev
FN:340,_ZNSt12_Vector_baseI24napi_property_descriptorSaIS0_EE11_M_allocateEj
FN:347,_ZNSt12_Vector_baseIP12napi_value__SaIS1_EE13_M_deallocateEPS1_j
FN:347,_ZNSt12_Vector_baseI24napi_property_descriptorSaIS0_EE13_M_deallocateEPS0_j
FN:356,_ZNSt12_Vector_baseI24napi_property_descriptorSaIS0_EE17_M_create_storageEj
FN:484,_ZNSt6vectorIP12napi_value__SaIS1_EEC2Ev
FN:507,_ZNSt6vectorI24napi_property_descriptorSaIS0_EEC2EjRKS1_
FN:675,_ZNSt6vectorIP12napi_value__SaIS1_EED2Ev
FN:675,_ZNSt6vectorI24napi_property_descriptorSaIS0_EED2Ev
FN:915,_ZNKSt6vectorIP12napi_value__SaIS1_EE4sizeEv
FN:1040,_ZNSt6vectorI24napi_property_descriptorSaIS0_EEixEj
FN:1165,_ZNSt6vectorI24napi_property_descriptorSaIS0_EE4dataEv
FN:1169,_ZNKSt6vectorIP12napi_value__SaIS1_EE4dataEv
FN:1600,_ZNSt6vectorI24napi_property_descriptorSaIS0_EE21_M_default_initializeEj
FN:1764,_ZNSt6vectorI24napi_property_descriptorSaIS0_EE17_S_check_init_lenEjRKS1_
FN:1773,_ZNSt6vectorI24napi_property_descriptorSaIS0_EE11_S_max_sizeERKS1_
FN:1840,_ZNKSt6vectorIP12napi_value__SaIS1_EE11_M_data_ptrIS1_EEPT_S6_
FN:1840,_ZNKSt6vectorI24napi_property_descriptorSaIS0_EE11_M_data_ptrIS0_EEPT_S5_
FNDA:1,_ZNSt12_Vector_baseI24napi_property_descriptorSaIS0_EE11_M_allocateEj
FNDA:1,_ZNSt6vectorI24napi_property_descriptorSaIS0_EE21_M_default_initializeEj
FNDA:15,_ZNSt12_Vector_baseIP12napi_value__SaIS1_EE19_M_get_Tp_allocatorEv
FNDA:15,_ZNSt12_Vector_baseIP12napi_value__SaIS1_EEC2Ev
FNDA:1,_ZNSt12_Vector_baseI24napi_property_descriptorSaIS0_EEC2EjRKS1_
FNDA:1,_ZNSt6vectorI24napi_property_descriptorSaIS0_EE17_S_check_init_lenEjRKS1_
FNDA:72,_ZNSt6vectorI24napi_property_descriptorSaIS0_EEixEj
FNDA:1,_ZNSt12_Vector_baseI24napi_property_descriptorSaIS0_EE13_M_deallocateEPS0_j
FNDA:1,_ZNKSt6vectorI24napi_property_descriptorSaIS0_EE11_M_data_ptrIS0_EEPT_S5_
FNDA:1,_ZNSt6vectorI24napi_property_descriptorSaIS0_EED2Ev
FNDA:15,_ZNSt12_Vector_baseIP12napi_value__SaIS1_EED2Ev
FNDA:1,_ZNSt6vectorI24napi_property_descriptorSaIS0_EE11_S_max_sizeERKS1_
FNDA:15,_ZNSt6vectorIP12napi_value__SaIS1_EEC2Ev
FNDA:15,_ZNKSt6vectorIP12napi_value__SaIS1_EE4sizeEv
FNDA:15,_ZNKSt6vectorIP12napi_value__SaIS1_EE11_M_data_ptrIS1_EEPT_S6_
FNDA:1,_ZNSt12_Vector_baseI24napi_property_descriptorSaIS0_EE12_Vector_implC2ERKS1_
FNDA:15,_ZNSt12_Vector_baseIP12napi_value__SaIS1_EE17_Vector_impl_dataC2Ev
FNDA:1,_ZNSt12_Vector_baseI24napi_property_descriptorSaIS0_EED2Ev
FNDA:1,_ZNSt6vectorI24napi_property_descriptorSaIS0_EE4dataEv
FNDA:15,_ZNSt12_Vector_baseIP12napi_value__SaIS1_EE12_Vector_implC2Ev
FNDA:1,_ZNSt12_Vector_baseI24napi_property_descriptorSaIS0_EE17_Vector_impl_dataC2Ev
FNDA:1,_ZNSt6vectorI24napi_property_descriptorSaIS0_EEC2EjRKS1_
FNDA:15,_ZNSt12_Vector_baseIP12napi_value__SaIS1_EE13_M_deallocateEPS1_j
FNDA:1,_ZNSt12_Vector_baseI24napi_property_descriptorSaIS0_EE17_M_create_storageEj
FNDA:15,_ZNSt6vectorIP12napi_value__SaIS1_EED2Ev
FNDA:15,_ZNKSt6vectorIP12napi_value__SaIS1_EE4dataEv
FNDA:2,_ZNSt12_Vector_baseI24napi_property_descriptorSaIS0_EE19_M_get_Tp_allocatorEv
FNF:27
FNH:27
DA:94,16
DA:95,16
DA:96,16
DA:128,15
DA:130,15
DA:131,15
DA:133,1
DA:134,1
DA:135,1
DA:273,17
DA:274,17
DA:285,15
DA:300,1
DA:301,1
DA:302,1
DA:330,16
DA:332,16
DA:333,16
DA:334,16
DA:340,1
DA:343,1
DA:347,16
DA:350,16
DA:351,1
DA:352,16
DA:356,1
DA:358,1
DA:359,1
DA:360,1
DA:361,1
DA:484,15
DA:507,1
DA:508,1
DA:509,1
DA:675,16
DA:677,16
DA:678,16
DA:680,16
DA:915,15
DA:916,15
DA:1040,72
DA:1043,72
DA:1165,1
DA:1166,1
DA:1169,15
DA:1170,15
DA:1600,1
DA:1602,1
DA:1603,1
DA:1604,1
DA:1605,1
DA:1764,1
DA:1766,1
DA:1767,0
DA:1769,1
DA:1773,1
DA:1778,1
DA:1780,1
DA:1781,1
DA:1840,16
DA:1841,16
LF:61
LH:60
end_of_record
TN:
SF:/usr/include/c++/9/ext/new_allocator.h
FN:80,_ZN9__gnu_cxx13new_allocatorIP12napi_value__EC2Ev
FN:80,_ZN9__gnu_cxx13new_allocatorI24napi_property_descriptorEC2Ev
FN:80,_ZN9__gnu_cxx13new_allocatorIcEC2Ev
FN:83,_ZN9__gnu_cxx13new_allocatorI24napi_property_descriptorEC2ERKS2_
FN:89,_ZN9__gnu_cxx13new_allocatorI24napi_property_descriptorED2Ev
FN:89,_ZN9__gnu_cxx13new_allocatorIcED2Ev
FN:89,_ZN9__gnu_cxx13new_allocatorIP12napi_value__ED2Ev
FN:102,_ZN9__gnu_cxx13new_allocatorI24napi_property_descriptorE8allocateEjPKv
FN:119,_ZN9__gnu_cxx13new_allocatorI24napi_property_descriptorE10deallocateEPS1_j
FN:119,_ZN9__gnu_cxx13new_allocatorIP12napi_value__E10deallocateEPS2_j
FN:132,_ZNK9__gnu_cxx13new_allocatorI24napi_property_descriptorE8max_sizeEv
FNDA:15,_ZN9__gnu_cxx13new_allocatorIP12napi_value__EC2Ev
FNDA:2,_ZNK9__gnu_cxx13new_allocatorI24napi_property_descriptorE8max_sizeEv
FNDA:0,_ZN9__gnu_cxx13new_allocatorIcED2Ev
FNDA:15,_ZN9__gnu_cxx13new_allocatorIP12napi_value__ED2Ev
FNDA:3,_ZN9__gnu_cxx13new_allocatorI24napi_property_descriptorED2Ev
FNDA:0,_ZN9__gnu_cxx13new_allocatorIcEC2Ev
FNDA:1,_ZN9__gnu_cxx13new_allocatorI24napi_property_descriptorE10deallocateEPS1_j
FNDA:0,_ZN9__gnu_cxx13new_allocatorIP12napi_value__E10deallocateEPS2_j
FNDA:1,_ZN9__gnu_cxx13new_allocatorI24napi_property_descriptorE8allocateEjPKv
FNDA:1,_ZN9__gnu_cxx13new_allocatorI24napi_property_descriptorEC2Ev
FNDA:2,_ZN9__gnu_cxx13new_allocatorI24napi_property_descriptorEC2ERKS2_
FNF:11
FNH:8
DA:80,16
DA:83,2
DA:89,18
DA:102,1
DA:104,1
DA:105,0
DA:114,1
DA:119,1
DA:128,1
DA:129,1
DA:132,2
DA:135,2
LF:12
LH:11
end_of_record
TN:
SF:/usr/include/c++/9/ext/string_conversions.h
FN:99,_ZN9__gnu_cxx12__to_xstringINSt7__cxx1112basic_stringIcSt11char_traitsIcESaIcEEEcEET_PFiPT0_jPKS8_St9__va_listEjSB_z
FNDA:0,_ZN9__gnu_cxx12__to_xstringINSt7__cxx1112basic_stringIcSt11char_traitsIcESaIcEEEcEET_PFiPT0_jPKS8_St9__va_listEjSB_z
FNF:1
FNH:0
DA:99,0
DA:105,0
DA:109,0
DA:111,0
DA:113,0
DA:115,0
LF:6
LH:0
end_of_record
TN:
SF:/usr/include/c++/9/ext/type_traits.h
FN:152,_ZN9__gnu_cxx17__is_null_pointerIKcEEbPT_
FN:152,_ZN9__gnu_cxx17__is_null_pointerIcEEbPT_
FNDA:0,_ZN9__gnu_cxx17__is_null_pointerIcEEbPT_
FNDA:0,_ZN9__gnu_cxx17__is_null_pointerIKcEEbPT_
FNF:2
FNH:0
DA:152,0
DA:153,0
LF:2
LH:0
end_of_record
TN:
SF:/usr/include/c++/9/initializer_list
FN:71,_ZNKSt16initializer_listIP12napi_value__E4sizeEv
FN:71,_ZNKSt16initializer_listIN4Napi23ClassPropertyDescriptorI9LoRaCommsEEE4sizeEv
FN:75,_ZNKSt16initializer_listIN4Napi23ClassPropertyDescriptorI9LoRaCommsEEE5beginEv
FN:75,_ZNKSt16initializer_listIP12napi_value__E5beginEv
FNDA:857,_ZNKSt16initializer_listIP12napi_value__E5beginEv
FNDA:1,_ZNKSt16initializer_listIN4Napi23ClassPropertyDescriptorI9LoRaCommsEEE4sizeEv
FNDA:857,_ZNKSt16initializer_listIP12napi_value__E4sizeEv
FNDA:1,_ZNKSt16initializer_listIN4Napi23ClassPropertyDescriptorI9LoRaCommsEEE5beginEv
FNF:4
FNH:4
DA:71,858
DA:75,858
LF:2
LH:2
end_of_record
TN:
SF:lib/lora-comms.js
FN:29,(anonymous_0)
FN:36,(anonymous_1)
FN:38,(anonymous_2)
FN:59,(anonymous_3)
FN:65,(anonymous_4)
FN:75,(anonymous_5)
FN:80,(anonymous_6)
FN:88,(anonymous_7)
FN:94,(anonymous_8)
FN:97,(anonymous_9)
FN:106,(anonymous_10)
FN:111,(anonymous_11)
FN:119,(anonymous_12)
FN:124,(anonymous_13)
FN:145,(anonymous_14)
FN:177,(anonymous_16)
FN:177,(anonymous_15)
FN:210,(anonymous_17)
FN:222,(anonymous_18)
FN:235,(anonymous_19)
FN:246,(anonymous_20)
FN:259,(anonymous_21)
FN:279,(anonymous_22)
FN:301,(anonymous_23)
FN:314,(anonymous_24)
FN:325,(anonymous_25)
FN:336,(anonymous_26)
FNDA:21,(anonymous_24)
FNDA:15,(anonymous_6)
FNDA:18,(anonymous_12)
FNDA:667,(anonymous_11)
FNDA:16,(anonymous_20)
FNDA:19,(anonymous_2)
FNDA:1,(anonymous_13)
FNDA:21,(anonymous_18)
FNDA:18,(anonymous_19)
FNDA:16,(anonymous_16)
FNDA:36,(anonymous_3)
FNDA:15,(anonymous_17)
FNDA:16,(anonymous_25)
FNDA:32,(anonymous_7)
FNDA:813,(anonymous_8)
FNDA:21,(anonymous_4)
FNDA:16,(anonymous_15)
FNDA:22,(anonymous_0)
FNDA:1,(anonymous_5)
FNDA:16,(anonymous_26)
FNDA:1,(anonymous_23)
FNDA:19,(anonymous_1)
FNDA:1,(anonymous_10)
FNDA:17,(anonymous_21)
FNDA:32,(anonymous_22)
FNDA:813,(anonymous_9)
FNDA:17,(anonymous_14)
FNF:27
FNH:27
BRDA:8,0,0,1
BRDA:8,0,1,1
BRDA:40,1,0,2
BRDA:40,1,1,17
BRDA:42,2,0,1
BRDA:42,2,1,1
BRDA:50,3,0,1
BRDA:50,3,1,16
BRDA:61,4,0,15
BRDA:61,4,1,21
BRDA:68,5,0,5
BRDA:68,5,1,16
BRDA:70,6,0,4
BRDA:70,6,1,1
BRDA:78,7,0,15
BRDA:78,7,1,1
BRDA:99,8,0,31
BRDA:99,8,1,782
BRDA:101,9,0,30
BRDA:101,9,1,1
BRDA:109,10,0,667
BRDA:109,10,1,115
BRDA:153,11,0,1
BRDA:153,11,1,16
BRDA:158,12,0,15
BRDA:158,12,1,1
BRDA:166,13,0,5
BRDA:166,13,1,11
BRDA:181,14,0,11
BRDA:181,14,1,5
BRDA:187,15,0,11
BRDA:187,15,1,5
BRDA:193,16,0,1
BRDA:193,16,1,15
BRDA:261,17,0,1
BRDA:261,17,1,16
BRDA:266,18,0,15
BRDA:266,18,1,1
BRDA:281,19,0,16
BRDA:281,19,1,16
BRF:40
BRH:40
DA:8,1
DA:10,1
DA:11,1
DA:12,1
DA:13,1
DA:15,1
DA:16,1
DA:17,1
DA:19,1
DA:20,1
DA:21,1
DA:23,1
DA:24,1
DA:25,1
DA:31,22
DA:32,22
DA:33,22
DA:38,19
DA:40,19
DA:42,2
DA:44,1
DA:47,2
DA:50,17
DA:52,1
DA:55,16
DA:61,36
DA:62,21
DA:64,21
DA:65,21
DA:67,21
DA:68,21
DA:70,5
DA:72,4
DA:75,1
DA:78,16
DA:80,15
DA:90,32
DA:91,32
DA:96,813
DA:97,813
DA:99,813
DA:101,31
DA:103,30
DA:106,1
DA:109,782
DA:111,667
DA:121,18
DA:126,1
DA:127,1
DA:128,1
DA:129,1
DA:130,1
DA:131,1
DA:132,1
DA:133,1
DA:134,1
DA:147,17
DA:153,17
DA:155,1
DA:158,16
DA:160,15
DA:163,16
DA:164,16
DA:166,16
DA:168,5
DA:169,5
DA:173,11
DA:174,11
DA:177,16
DA:179,16
DA:181,16
DA:183,11
DA:184,11
DA:187,16
DA:189,11
DA:190,11
DA:193,16
DA:195,1
DA:198,16
DA:212,15
DA:224,21
DA:237,18
DA:248,16
DA:261,17
DA:263,1
DA:266,16
DA:268,15
DA:271,16
DA:272,16
DA:274,16
DA:276,16
DA:279,16
DA:281,32
DA:283,16
DA:284,16
DA:287,16
DA:288,16
DA:290,16
DA:303,1
DA:304,1
DA:305,1
DA:316,21
DA:327,16
DA:338,16
DA:364,1
LF:105
LH:105
end_of_record
