TN:
SF:/home/david/node-lora-comms/src/lora_comms.cc
FN:53,_Z10ErrnoErrorRKN4Napi3EnvEi
FNDA:0,_Z10ErrnoErrorRKN4Napi3EnvEi
FN:71,_ZN16StartAsyncWorkerC2ERKN4Napi8FunctionERKNS0_6StringE
FNDA:0,_ZN16StartAsyncWorkerC2ERKN4Napi8FunctionERKNS0_6StringE
FN:79,_ZN16StartAsyncWorker7ExecuteEv
FNDA:0,_ZN16StartAsyncWorker7ExecuteEv
FN:93,_ZN9LoRaComms5StartERKN4Napi12CallbackInfoE
FNDA:0,_ZN9LoRaComms5StartERKN4Napi12CallbackInfoE
FN:100,_ZN9LoRaComms4StopERKN4Napi12CallbackInfoE
FNDA:0,_ZN9LoRaComms4StopERKN4Napi12CallbackInfoE
FN:105,_ZN9LoRaComms5ResetERKN4Napi12CallbackInfoE
FNDA:0,_ZN9LoRaComms5ResetERKN4Napi12CallbackInfoE
FN:113,_ZN16CommsAsyncWorkerC2ERKN4Napi8FunctionERKNS0_6BufferIhEERK7timeval
FNDA:0,_ZN16CommsAsyncWorkerC2ERKN4Napi8FunctionERKNS0_6BufferIhEERK7timeval
FN:136,_ZN16CommsAsyncWorker7ExecuteEv
FNDA:0,_ZN16CommsAsyncWorker7ExecuteEv
FN:145,_ZN16CommsAsyncWorker4OnOKEv
FNDA:0,_ZN16CommsAsyncWorker4OnOKEv
FN:169,_ZN15LinkAsyncWorkerC2ERKN4Napi8FunctionEiRKNS0_6BufferIhEERK7timeval
FNDA:0,_ZN15LinkAsyncWorkerC2ERKN4Napi8FunctionEiRKNS0_6BufferIhEERK7timeval
FN:194,_ZN19RecvFromAsyncWorkerC2ERKN4Napi8FunctionEiRKNS0_6BufferIhEERK7timeval
FNDA:0,_ZN19RecvFromAsyncWorkerC2ERKN4Napi8FunctionEiRKNS0_6BufferIhEERK7timeval
FN:203,_ZN19RecvFromAsyncWorker11CommunicateEv
FNDA:0,_ZN19RecvFromAsyncWorker11CommunicateEv
FN:209,_ZN9LoRaComms8RecvFromERKN4Napi12CallbackInfoE
FNDA:0,_ZN9LoRaComms8RecvFromERKN4Napi12CallbackInfoE
FN:221,_ZN17SendToAsyncWorkerC2ERKN4Napi8FunctionEiRKNS0_6BufferIhEElRK7timeval
FNDA:0,_ZN17SendToAsyncWorkerC2ERKN4Napi8FunctionEiRKNS0_6BufferIhEElRK7timeval
FN:232,_ZN17SendToAsyncWorker11CommunicateEv
FNDA:0,_ZN17SendToAsyncWorker11CommunicateEv
FN:241,_ZN9LoRaComms6SendToERKN4Napi12CallbackInfoE
FNDA:0,_ZN9LoRaComms6SendToERKN4Napi12CallbackInfoE
FN:251,_ZN9LoRaComms12SetGWSendHWMERKN4Napi12CallbackInfoE
FNDA:0,_ZN9LoRaComms12SetGWSendHWMERKN4Napi12CallbackInfoE
FN:256,_ZN9LoRaComms16SetGWSendTimeoutERKN4Napi12CallbackInfoE
FNDA:0,_ZN9LoRaComms16SetGWSendTimeoutERKN4Napi12CallbackInfoE
FN:262,_ZN9LoRaComms16SetGWRecvTimeoutERKN4Napi12CallbackInfoE
FNDA:0,_ZN9LoRaComms16SetGWRecvTimeoutERKN4Napi12CallbackInfoE
FN:268,_ZN9LoRaComms12StartLoggingERKN4Napi12CallbackInfoE
FNDA:0,_ZN9LoRaComms12StartLoggingERKN4Napi12CallbackInfoE
FN:273,_ZN9LoRaComms11StopLoggingERKN4Napi12CallbackInfoE
FNDA:0,_ZN9LoRaComms11StopLoggingERKN4Napi12CallbackInfoE
FN:279,_ZN9LoRaComms12ResetLoggingERKN4Napi12CallbackInfoE
FNDA:0,_ZN9LoRaComms12ResetLoggingERKN4Napi12CallbackInfoE
FN:287,_ZN14LogAsyncWorkerC2ERKN4Napi8FunctionEPFlPcmPK7timevalERKNS0_6BufferIhEERS6_
FNDA:0,_ZN14LogAsyncWorkerC2ERKN4Napi8FunctionEPFlPcmPK7timevalERKNS0_6BufferIhEERS6_
FN:297,_ZN14LogAsyncWorker11CommunicateEv
FNDA:0,_ZN14LogAsyncWorker11CommunicateEv
FN:306,_ZN9LoRaComms17GetLogInfoMessageERKN4Napi12CallbackInfoE
FNDA:0,_ZN9LoRaComms17GetLogInfoMessageERKN4Napi12CallbackInfoE
FN:315,_ZN9LoRaComms18GetLogErrorMessageERKN4Napi12CallbackInfoE
FNDA:0,_ZN9LoRaComms18GetLogErrorMessageERKN4Napi12CallbackInfoE
FN:324,_ZN9LoRaComms14SetLogWriteHWMERKN4Napi12CallbackInfoE
FNDA:0,_ZN9LoRaComms14SetLogWriteHWMERKN4Napi12CallbackInfoE
FN:329,_ZN9LoRaComms18SetLogWriteTimeoutERKN4Napi12CallbackInfoE
FNDA:0,_ZN9LoRaComms18SetLogWriteTimeoutERKN4Napi12CallbackInfoE
FN:335,_ZN9LoRaComms20SetLogMaxMessageSizeERKN4Napi12CallbackInfoE
FNDA:0,_ZN9LoRaComms20SetLogMaxMessageSizeERKN4Napi12CallbackInfoE
FN:340,_ZN9LoRaComms20GetLogMaxMessageSizeERKN4Napi12CallbackInfoE
FNDA:0,_ZN9LoRaComms20GetLogMaxMessageSizeERKN4Napi12CallbackInfoE
FN:347,_ZN9LoRaComms7TimeValERKN4Napi12CallbackInfoEj
FNDA:0,_ZN9LoRaComms7TimeValERKN4Napi12CallbackInfoEj
FN:356,_ZN9LoRaComms8CommLinkERKN4Napi12CallbackInfoEj
FNDA:0,_ZN9LoRaComms8CommLinkERKN4Napi12CallbackInfoEj
FN:362,_ZN9LoRaComms10InitializeEN4Napi3EnvENS0_6ObjectE
FNDA:0,_ZN9LoRaComms10InitializeEN4Napi3EnvENS0_6ObjectE
FN:401,_Z10InitializeN4Napi3EnvENS_6ObjectE
FNDA:0,_Z10InitializeN4Napi3EnvENS_6ObjectE
FN:406,_register_lora_comms
FNDA:0,_register_lora_comms
FN:406,_ZL17__napi_InitializeP10napi_env__P12napi_value__
FNDA:0,_ZL17__napi_InitializeP10napi_env__P12napi_value__
DA:53,0
DA:55,0
DA:56,0
DA:59,0
DA:60,0
DA:61,0
DA:71,0
DA:72,0
DA:74,0
DA:76,0
DA:79,0
DA:81,0
DA:83,0
DA:86,0
DA:87,0
DA:93,0
DA:95,0
DA:96,0
DA:97,0
DA:98,0
DA:100,0
DA:102,0
DA:103,0
DA:105,0
DA:107,0
DA:108,0
DA:113,0
DA:115,0
DA:117,0
DA:118,0
DA:119,0
DA:120,0
DA:122,0
DA:136,0
DA:138,0
DA:139,0
DA:141,0
DA:143,0
DA:145,0
DA:147,0
DA:148,0
DA:149,0
DA:151,0
DA:152,0
DA:154,0
DA:169,0
DA:172,0
DA:174,0
DA:176,0
DA:194,0
DA:197,0
DA:198,0
DA:200,0
DA:203,0
DA:205,0
DA:209,0
DA:211,0
DA:212,0
DA:213,0
DA:214,0
DA:215,0
DA:216,0
DA:221,0
DA:225,0
DA:227,0
DA:229,0
DA:232,0
DA:234,0
DA:241,0
DA:243,0
DA:244,0
DA:245,0
DA:246,0
DA:247,0
DA:248,0
DA:249,0
DA:251,0
DA:253,0
DA:254,0
DA:256,0
DA:258,0
DA:259,0
DA:260,0
DA:262,0
DA:264,0
DA:265,0
DA:266,0
DA:268,0
DA:270,0
DA:271,0
DA:273,0
DA:275,0
DA:276,0
DA:277,0
DA:279,0
DA:281,0
DA:282,0
DA:287,0
DA:290,0
DA:292,0
DA:294,0
DA:297,0
DA:299,0
DA:306,0
DA:308,0
DA:310,0
DA:311,0
DA:312,0
DA:313,0
DA:315,0
DA:317,0
DA:319,0
DA:320,0
DA:321,0
DA:322,0
DA:324,0
DA:326,0
DA:327,0
DA:329,0
DA:331,0
DA:332,0
DA:333,0
DA:335,0
DA:337,0
DA:338,0
DA:340,0
DA:342,0
DA:347,0
DA:351,0
DA:352,0
DA:353,0
DA:356,0
DA:359,0
DA:362,0
DA:364,0
DA:366,0
DA:367,0
DA:368,0
DA:370,0
DA:371,0
DA:373,0
DA:374,0
DA:376,0
DA:377,0
DA:378,0
DA:380,0
DA:381,0
DA:382,0
DA:383,0
DA:384,0
DA:385,0
DA:386,0
DA:387,0
DA:388,0
DA:390,0
DA:391,0
DA:392,0
DA:394,0
DA:395,0
DA:398,0
DA:401,0
DA:403,0
DA:406,0
DA:406,0
end_of_record
SF:/usr/include/c++/11/bits/allocator.h
FN:168,_ZNSaI24napi_property_descriptorEC2Ev
FNDA:0,_ZNSaI24napi_property_descriptorEC2Ev
FN:168,_ZNSaIP12napi_value__EC2Ev
FNDA:0,_ZNSaIP12napi_value__EC2Ev
FN:171,_ZNSaI24napi_property_descriptorEC2ERKS0_
FNDA:0,_ZNSaI24napi_property_descriptorEC2ERKS0_
FN:186,_ZNSaI24napi_property_descriptorED2Ev
FNDA:0,_ZNSaI24napi_property_descriptorED2Ev
FN:186,_ZNSaIP12napi_value__ED2Ev
FNDA:0,_ZNSaIP12napi_value__ED2Ev
DA:168,0
DA:168,0
DA:171,0
DA:172,0
DA:186,0
DA:186,0
end_of_record
SF:/usr/include/c++/11/bits/stl_iterator_base_funcs.h
FN:98,_ZSt10__distanceIPKcENSt15iterator_traitsIT_E15difference_typeES3_S3_St26random_access_iterator_tag
FNDA:0,_ZSt10__distanceIPKcENSt15iterator_traitsIT_E15difference_typeES3_S3_St26random_access_iterator_tag
FN:138,_ZSt8distanceIPKcENSt15iterator_traitsIT_E15difference_typeES3_S3_
FNDA:0,_ZSt8distanceIPKcENSt15iterator_traitsIT_E15difference_typeES3_S3_
DA:98,0
DA:104,0
DA:138,0
DA:141,0
DA:142,0
end_of_record
SF:/usr/include/c++/11/bits/stl_construct.h
FN:108,_ZSt10_ConstructI24napi_property_descriptorJEEvPT_DpOT0_
FNDA:0,_ZSt10_ConstructI24napi_property_descriptorJEEvPT_DpOT0_
FN:161,_ZNSt12_Destroy_auxILb1EE9__destroyIP24napi_property_descriptorEEvT_S4_
FNDA:0,_ZNSt12_Destroy_auxILb1EE9__destroyIP24napi_property_descriptorEEvT_S4_
FN:161,_ZNSt12_Destroy_auxILb1EE9__destroyIPP12napi_value__EEvT_S5_
FNDA:0,_ZNSt12_Destroy_auxILb1EE9__destroyIPP12napi_value__EEvT_S5_
FN:171,_ZSt8_DestroyIP24napi_property_descriptorEvT_S2_
FNDA:0,_ZSt8_DestroyIP24napi_property_descriptorEvT_S2_
FN:171,_ZSt8_DestroyIPP12napi_value__EvT_S3_
FNDA:0,_ZSt8_DestroyIPP12napi_value__EvT_S3_
DA:108,0
DA:109,0
DA:161,0
DA:161,0
DA:171,0
DA:185,0
DA:186,0
DA:171,0
DA:185,0
DA:186,0
end_of_record
SF:/usr/include/c++/11/ext/new_allocator.h
FN:79,_ZN9__gnu_cxx13new_allocatorI24napi_property_descriptorEC2Ev
FNDA:0,_ZN9__gnu_cxx13new_allocatorI24napi_property_descriptorEC2Ev
FN:79,_ZN9__gnu_cxx13new_allocatorIP12napi_value__EC2Ev
FNDA:0,_ZN9__gnu_cxx13new_allocatorIP12napi_value__EC2Ev
FN:79,_ZN9__gnu_cxx13new_allocatorIcEC2Ev
FNDA:0,_ZN9__gnu_cxx13new_allocatorIcEC2Ev
FN:82,_ZN9__gnu_cxx13new_allocatorI24napi_property_descriptorEC2ERKS2_
FNDA:0,_ZN9__gnu_cxx13new_allocatorI24napi_property_descriptorEC2ERKS2_
FN:89,_ZN9__gnu_cxx13new_allocatorI24napi_property_descriptorED2Ev
FNDA:0,_ZN9__gnu_cxx13new_allocatorI24napi_property_descriptorED2Ev
FN:89,_ZN9__gnu_cxx13new_allocatorIP12napi_value__ED2Ev
FNDA:0,_ZN9__gnu_cxx13new_allocatorIP12napi_value__ED2Ev
FN:89,_ZN9__gnu_cxx13new_allocatorIcED2Ev
FNDA:0,_ZN9__gnu_cxx13new_allocatorIcED2Ev
FN:103,_ZN9__gnu_cxx13new_allocatorI24napi_property_descriptorE8allocateEmPKv
FNDA:0,_ZN9__gnu_cxx13new_allocatorI24napi_property_descriptorE8allocateEmPKv
FN:132,_ZN9__gnu_cxx13new_allocatorI24napi_property_descriptorE10deallocateEPS1_m
FNDA:0,_ZN9__gnu_cxx13new_allocatorI24napi_property_descriptorE10deallocateEPS1_m
FN:132,_ZN9__gnu_cxx13new_allocatorIP12napi_value__E10deallocateEPS2_m
FNDA:0,_ZN9__gnu_cxx13new_allocatorIP12napi_value__E10deallocateEPS2_m
FN:154,_ZNK9__gnu_cxx13new_allocatorI24napi_property_descriptorE8max_sizeEv
FNDA:0,_ZNK9__gnu_cxx13new_allocatorI24napi_property_descriptorE8max_sizeEv
FN:197,_ZNK9__gnu_cxx13new_allocatorI24napi_property_descriptorE11_M_max_sizeEv
FNDA:0,_ZNK9__gnu_cxx13new_allocatorI24napi_property_descriptorE11_M_max_sizeEv
DA:79,0
DA:79,0
DA:79,0
DA:82,0
DA:89,0
DA:89,0
DA:89,0
DA:103,0
DA:111,0
DA:115,0
DA:116,0
DA:117,0
DA:127,0
DA:132,0
DA:145,0
DA:150,0
DA:132,0
DA:145,0
DA:150,0
DA:154,0
DA:155,0
DA:197,0
DA:200,0
end_of_record
SF:/usr/include/c++/11/bits/stl_algobase.h
FN:230,_ZSt3minImERKT_S2_S2_
FNDA:0,_ZSt3minImERKT_S2_S2_
FN:908,_ZSt9__fill_a1IP24napi_property_descriptorS0_EN9__gnu_cxx11__enable_ifIXntsrSt11__is_scalarIT0_E7__valueEvE6__typeET_S9_RKS5_
FNDA:0,_ZSt9__fill_a1IP24napi_property_descriptorS0_EN9__gnu_cxx11__enable_ifIXntsrSt11__is_scalarIT0_E7__valueEvE6__typeET_S9_RKS5_
FN:968,_ZSt8__fill_aIP24napi_property_descriptorS0_EvT_S2_RKT0_
FNDA:0,_ZSt8__fill_aIP24napi_property_descriptorS0_EvT_S2_RKT0_
FN:1010,_ZSt17__size_to_integerm
FNDA:0,_ZSt17__size_to_integerm
FN:1109,_ZSt10__fill_n_aIP24napi_property_descriptormS0_ET_S2_T0_RKT1_St26random_access_iterator_tag
FNDA:0,_ZSt10__fill_n_aIP24napi_property_descriptormS0_ET_S2_T0_RKT1_St26random_access_iterator_tag
FN:1144,_ZSt6fill_nIP24napi_property_descriptormS0_ET_S2_T0_RKT1_
FNDA:0,_ZSt6fill_nIP24napi_property_descriptormS0_ET_S2_T0_RKT1_
DA:230,0
DA:235,0
DA:236,0
DA:237,0
DA:908,0
DA:911,0
DA:912,0
DA:913,0
DA:968,0
DA:969,0
DA:1010,0
DA:1109,0
DA:1115,0
DA:1116,0
DA:1120,0
DA:1121,0
DA:1144,0
DA:1149,0
DA:1150,0
end_of_record
SF:/usr/include/c++/11/bits/exception.h
FN:64,_ZNSt9exceptionC2Ev
FNDA:0,_ZNSt9exceptionC2Ev
DA:64,0
end_of_record
SF:/usr/include/c++/11/ext/type_traits.h
FN:152,_ZN9__gnu_cxx17__is_null_pointerIKcEEbPT_
FNDA:0,_ZN9__gnu_cxx17__is_null_pointerIKcEEbPT_
DA:152,0
DA:153,0
end_of_record
SF:/home/david/node-lora-comms/node_modules/node-addon-api/napi-inl.h
FN:29,_ZN4Napi7detailsL10AttachDataINS_18MethodCallbackDataI9LoRaCommsMS3_FvRKNS_12CallbackInfoEEEEEE11napi_statusP10napi_env__P12napi_value__PT_PFvSC_PvSH_ESH_
FNDA:0,_ZN4Napi7detailsL10AttachDataINS_18MethodCallbackDataI9LoRaCommsMS3_FvRKNS_12CallbackInfoEEEEEE11napi_statusP10napi_env__P12napi_value__PT_PFvSC_PvSH_ESH_
FN:29,_ZN4Napi7detailsL10AttachDataINS_18MethodCallbackDataI9LoRaCommsPFNS_5ValueERKNS_12CallbackInfoEEEEEE11napi_statusP10napi_env__P12napi_value__PT_PFvSD_PvSI_ESI_
FNDA:0,_ZN4Napi7detailsL10AttachDataINS_18MethodCallbackDataI9LoRaCommsPFNS_5ValueERKNS_12CallbackInfoEEEEEE11napi_statusP10napi_env__P12napi_value__PT_PFvSD_PvSI_ESI_
FN:29,_ZN4Napi7detailsL10AttachDataINS_20AccessorCallbackDataI9LoRaCommsPFNS_5ValueERKNS_12CallbackInfoEEPFvS7_RKS4_EEEEE11napi_statusP10napi_env__P12napi_value__PT_PFvSH_PvSM_ESM_
FNDA:0,_ZN4Napi7detailsL10AttachDataINS_20AccessorCallbackDataI9LoRaCommsPFNS_5ValueERKNS_12CallbackInfoEEPFvS7_RKS4_EEEEE11napi_statusP10napi_env__P12napi_value__PT_PFvSH_PvSM_ESM_
FN:29,_ZN4Napi7detailsL10AttachDataINS_20AccessorCallbackDataI9LoRaCommsMS3_FNS_5ValueERKNS_12CallbackInfoEEMS3_FvS7_RKS4_EEEEE11napi_statusP10napi_env__P12napi_value__PT_PFvSH_PvSM_ESM_
FNDA:0,_ZN4Napi7detailsL10AttachDataINS_20AccessorCallbackDataI9LoRaCommsMS3_FNS_5ValueERKNS_12CallbackInfoEEMS3_FvS7_RKS4_EEEEE11napi_statusP10napi_env__P12napi_value__PT_PFvSH_PvSM_ESM_
FN:29,_ZN4Napi7detailsL10AttachDataINS_18MethodCallbackDataI9LoRaCommsMS3_FNS_5ValueERKNS_12CallbackInfoEEEEEE11napi_statusP10napi_env__P12napi_value__PT_PFvSD_PvSI_ESI_
FNDA:0,_ZN4Napi7detailsL10AttachDataINS_18MethodCallbackDataI9LoRaCommsMS3_FNS_5ValueERKNS_12CallbackInfoEEEEEE11napi_statusP10napi_env__P12napi_value__PT_PFvSD_PvSI_ESI_
FN:29,_ZN4Napi7detailsL10AttachDataINS_18MethodCallbackDataI9LoRaCommsPFvRKNS_12CallbackInfoEEEEEE11napi_statusP10napi_env__P12napi_value__PT_PFvSC_PvSH_ESH_
FNDA:0,_ZN4Napi7detailsL10AttachDataINS_18MethodCallbackDataI9LoRaCommsPFvRKNS_12CallbackInfoEEEEEE11napi_statusP10napi_env__P12napi_value__PT_PFvSC_PvSH_ESH_
FN:36,_ZZN4Napi7detailsL10AttachDataINS_18MethodCallbackDataI9LoRaCommsMS3_FvRKNS_12CallbackInfoEEEEEE11napi_statusP10napi_env__P12napi_value__PT_PFvSC_PvSH_ESH_ENKUlSC_SH_SH_E_clESC_SH_SH_
FNDA:0,_ZZN4Napi7detailsL10AttachDataINS_18MethodCallbackDataI9LoRaCommsMS3_FvRKNS_12CallbackInfoEEEEEE11napi_statusP10napi_env__P12napi_value__PT_PFvSC_PvSH_ESH_ENKUlSC_SH_SH_E_clESC_SH_SH_
FN:36,_ZZN4Napi7detailsL10AttachDataINS_18MethodCallbackDataI9LoRaCommsMS3_FNS_5ValueERKNS_12CallbackInfoEEEEEE11napi_statusP10napi_env__P12napi_value__PT_PFvSD_PvSI_ESI_ENKUlSD_SI_SI_E_clESD_SI_SI_
FNDA:0,_ZZN4Napi7detailsL10AttachDataINS_18MethodCallbackDataI9LoRaCommsMS3_FNS_5ValueERKNS_12CallbackInfoEEEEEE11napi_statusP10napi_env__P12napi_value__PT_PFvSD_PvSI_ESI_ENKUlSD_SI_SI_E_clESD_SI_SI_
FN:36,_ZZN4Napi7detailsL10AttachDataINS_20AccessorCallbackDataI9LoRaCommsPFNS_5ValueERKNS_12CallbackInfoEEPFvS7_RKS4_EEEEE11napi_statusP10napi_env__P12napi_value__PT_PFvSH_PvSM_ESM_ENKUlSH_SM_SM_E_clESH_SM_SM_
FNDA:0,_ZZN4Napi7detailsL10AttachDataINS_20AccessorCallbackDataI9LoRaCommsPFNS_5ValueERKNS_12CallbackInfoEEPFvS7_RKS4_EEEEE11napi_statusP10napi_env__P12napi_value__PT_PFvSH_PvSM_ESM_ENKUlSH_SM_SM_E_clESH_SM_SM_
FN:36,_ZZN4Napi7detailsL10AttachDataINS_18MethodCallbackDataI9LoRaCommsPFvRKNS_12CallbackInfoEEEEEE11napi_statusP10napi_env__P12napi_value__PT_PFvSC_PvSH_ESH_ENKUlSC_SH_SH_E_clESC_SH_SH_
FNDA:0,_ZZN4Napi7detailsL10AttachDataINS_18MethodCallbackDataI9LoRaCommsPFvRKNS_12CallbackInfoEEEEEE11napi_statusP10napi_env__P12napi_value__PT_PFvSC_PvSH_ESH_ENKUlSC_SH_SH_E_clESC_SH_SH_
FN:36,_ZZN4Napi7detailsL10AttachDataINS_20AccessorCallbackDataI9LoRaCommsMS3_FNS_5ValueERKNS_12CallbackInfoEEMS3_FvS7_RKS4_EEEEE11napi_statusP10napi_env__P12napi_value__PT_PFvSH_PvSM_ESM_ENKUlSH_SM_SM_E_clESH_SM_SM_
FNDA:0,_ZZN4Napi7detailsL10AttachDataINS_20AccessorCallbackDataI9LoRaCommsMS3_FNS_5ValueERKNS_12CallbackInfoEEMS3_FvS7_RKS4_EEEEE11napi_statusP10napi_env__P12napi_value__PT_PFvSH_PvSM_ESM_ENKUlSH_SM_SM_E_clESH_SM_SM_
FN:36,_ZZN4Napi7detailsL10AttachDataINS_18MethodCallbackDataI9LoRaCommsPFNS_5ValueERKNS_12CallbackInfoEEEEEE11napi_statusP10napi_env__P12napi_value__PT_PFvSD_PvSI_ESI_ENKUlSD_SI_SI_E_clESD_SI_SI_
FNDA:0,_ZZN4Napi7detailsL10AttachDataINS_18MethodCallbackDataI9LoRaCommsPFNS_5ValueERKNS_12CallbackInfoEEEEEE11napi_statusP10napi_env__P12napi_value__PT_PFvSD_PvSI_ESI_ENKUlSD_SI_SI_E_clESD_SI_SI_
FN:72,_ZN4Napi7details12WrapCallbackIZNS0_L21TemplatedVoidCallbackIXadL_ZN9LoRaComms5ResetERKNS_12CallbackInfoEEEEEP12napi_value__P10napi_env__P20napi_callback_info__EUlvE_EES8_T_
FNDA:0,_ZN4Napi7details12WrapCallbackIZNS0_L21TemplatedVoidCallbackIXadL_ZN9LoRaComms5ResetERKNS_12CallbackInfoEEEEEP12napi_value__P10napi_env__P20napi_callback_info__EUlvE_EES8_T_
FN:72,_ZN4Napi7details12WrapCallbackIZNS0_L21TemplatedVoidCallbackIXadL_ZN9LoRaComms8RecvFromERKNS_12CallbackInfoEEEEEP12napi_value__P10napi_env__P20napi_callback_info__EUlvE_EES8_T_
FNDA:0,_ZN4Napi7details12WrapCallbackIZNS0_L21TemplatedVoidCallbackIXadL_ZN9LoRaComms8RecvFromERKNS_12CallbackInfoEEEEEP12napi_value__P10napi_env__P20napi_callback_info__EUlvE_EES8_T_
FN:72,_ZN4Napi7details12WrapCallbackIZNS0_L21TemplatedVoidCallbackIXadL_ZN9LoRaComms6SendToERKNS_12CallbackInfoEEEEEP12napi_value__P10napi_env__P20napi_callback_info__EUlvE_EES8_T_
FNDA:0,_ZN4Napi7details12WrapCallbackIZNS0_L21TemplatedVoidCallbackIXadL_ZN9LoRaComms6SendToERKNS_12CallbackInfoEEEEEP12napi_value__P10napi_env__P20napi_callback_info__EUlvE_EES8_T_
FN:72,_ZN4Napi7details12WrapCallbackIZNS0_L21TemplatedVoidCallbackIXadL_ZN9LoRaComms4StopERKNS_12CallbackInfoEEEEEP12napi_value__P10napi_env__P20napi_callback_info__EUlvE_EES8_T_
FNDA:0,_ZN4Napi7details12WrapCallbackIZNS0_L21TemplatedVoidCallbackIXadL_ZN9LoRaComms4StopERKNS_12CallbackInfoEEEEEP12napi_value__P10napi_env__P20napi_callback_info__EUlvE_EES8_T_
FN:72,_ZN4Napi7details12WrapCallbackIZNS0_L21TemplatedVoidCallbackIXadL_ZN9LoRaComms16SetGWSendTimeoutERKNS_12CallbackInfoEEEEEP12napi_value__P10napi_env__P20napi_callback_info__EUlvE_EES8_T_
FNDA:0,_ZN4Napi7details12WrapCallbackIZNS0_L21TemplatedVoidCallbackIXadL_ZN9LoRaComms16SetGWSendTimeoutERKNS_12CallbackInfoEEEEEP12napi_value__P10napi_env__P20napi_callback_info__EUlvE_EES8_T_
FN:72,_ZN4Napi7details12WrapCallbackIZNS0_L21TemplatedVoidCallbackIXadL_ZN9LoRaComms12SetGWSendHWMERKNS_12CallbackInfoEEEEEP12napi_value__P10napi_env__P20napi_callback_info__EUlvE_EES8_T_
FNDA:0,_ZN4Napi7details12WrapCallbackIZNS0_L21TemplatedVoidCallbackIXadL_ZN9LoRaComms12SetGWSendHWMERKNS_12CallbackInfoEEEEEP12napi_value__P10napi_env__P20napi_callback_info__EUlvE_EES8_T_
FN:72,_ZN4Napi7details12WrapCallbackIZNS0_L21TemplatedVoidCallbackIXadL_ZN9LoRaComms18SetLogWriteTimeoutERKNS_12CallbackInfoEEEEEP12napi_value__P10napi_env__P20napi_callback_info__EUlvE_EES8_T_
FNDA:0,_ZN4Napi7details12WrapCallbackIZNS0_L21TemplatedVoidCallbackIXadL_ZN9LoRaComms18SetLogWriteTimeoutERKNS_12CallbackInfoEEEEEP12napi_value__P10napi_env__P20napi_callback_info__EUlvE_EES8_T_
FN:72,_ZN4Napi7details12WrapCallbackIZNS0_L21TemplatedVoidCallbackIXadL_ZN9LoRaComms16SetGWRecvTimeoutERKNS_12CallbackInfoEEEEEP12napi_value__P10napi_env__P20napi_callback_info__EUlvE_EES8_T_
FNDA:0,_ZN4Napi7details12WrapCallbackIZNS0_L21TemplatedVoidCallbackIXadL_ZN9LoRaComms16SetGWRecvTimeoutERKNS_12CallbackInfoEEEEEP12napi_value__P10napi_env__P20napi_callback_info__EUlvE_EES8_T_
FN:72,_ZN4Napi7details12WrapCallbackIZNS0_L21TemplatedVoidCallbackIXadL_ZN9LoRaComms12StartLoggingERKNS_12CallbackInfoEEEEEP12napi_value__P10napi_env__P20napi_callback_info__EUlvE_EES8_T_
FNDA:0,_ZN4Napi7details12WrapCallbackIZNS0_L21TemplatedVoidCallbackIXadL_ZN9LoRaComms12StartLoggingERKNS_12CallbackInfoEEEEEP12napi_value__P10napi_env__P20napi_callback_info__EUlvE_EES8_T_
FN:72,_ZN4Napi7details12WrapCallbackIZNS0_L21TemplatedVoidCallbackIXadL_ZN9LoRaComms11StopLoggingERKNS_12CallbackInfoEEEEEP12napi_value__P10napi_env__P20napi_callback_info__EUlvE_EES8_T_
FNDA:0,_ZN4Napi7details12WrapCallbackIZNS0_L21TemplatedVoidCallbackIXadL_ZN9LoRaComms11StopLoggingERKNS_12CallbackInfoEEEEEP12napi_value__P10napi_env__P20napi_callback_info__EUlvE_EES8_T_
FN:72,_ZN4Napi7details12WrapCallbackIZNS0_L21TemplatedVoidCallbackIXadL_ZN9LoRaComms12ResetLoggingERKNS_12CallbackInfoEEEEEP12napi_value__P10napi_env__P20napi_callback_info__EUlvE_EES8_T_
FNDA:0,_ZN4Napi7details12WrapCallbackIZNS0_L21TemplatedVoidCallbackIXadL_ZN9LoRaComms12ResetLoggingERKNS_12CallbackInfoEEEEEP12napi_value__P10napi_env__P20napi_callback_info__EUlvE_EES8_T_
FN:72,_ZN4Napi7details12WrapCallbackIZNS0_L21TemplatedVoidCallbackIXadL_ZN9LoRaComms17GetLogInfoMessageERKNS_12CallbackInfoEEEEEP12napi_value__P10napi_env__P20napi_callback_info__EUlvE_EES8_T_
FNDA:0,_ZN4Napi7details12WrapCallbackIZNS0_L21TemplatedVoidCallbackIXadL_ZN9LoRaComms17GetLogInfoMessageERKNS_12CallbackInfoEEEEEP12napi_value__P10napi_env__P20napi_callback_info__EUlvE_EES8_T_
FN:72,_ZN4Napi7details12WrapCallbackIZNS0_L21TemplatedVoidCallbackIXadL_ZN9LoRaComms18GetLogErrorMessageERKNS_12CallbackInfoEEEEEP12napi_value__P10napi_env__P20napi_callback_info__EUlvE_EES8_T_
FNDA:0,_ZN4Napi7details12WrapCallbackIZNS0_L21TemplatedVoidCallbackIXadL_ZN9LoRaComms18GetLogErrorMessageERKNS_12CallbackInfoEEEEEP12napi_value__P10napi_env__P20napi_callback_info__EUlvE_EES8_T_
FN:72,_ZN4Napi7details12WrapCallbackIZNS0_L21TemplatedVoidCallbackIXadL_ZN9LoRaComms14SetLogWriteHWMERKNS_12CallbackInfoEEEEEP12napi_value__P10napi_env__P20napi_callback_info__EUlvE_EES8_T_
FNDA:0,_ZN4Napi7details12WrapCallbackIZNS0_L21TemplatedVoidCallbackIXadL_ZN9LoRaComms14SetLogWriteHWMERKNS_12CallbackInfoEEEEEP12napi_value__P10napi_env__P20napi_callback_info__EUlvE_EES8_T_
FN:72,_ZN4Napi7details12WrapCallbackIZNS0_L17TemplatedCallbackIXadL_ZN9LoRaComms20GetLogMaxMessageSizeERKNS_12CallbackInfoEEEEEP12napi_value__P10napi_env__P20napi_callback_info__EUlvE_EES8_T_
FNDA:0,_ZN4Napi7details12WrapCallbackIZNS0_L17TemplatedCallbackIXadL_ZN9LoRaComms20GetLogMaxMessageSizeERKNS_12CallbackInfoEEEEEP12napi_value__P10napi_env__P20napi_callback_info__EUlvE_EES8_T_
FN:72,_ZN4Napi7details12WrapCallbackIZNS0_L21TemplatedVoidCallbackIXadL_ZN9LoRaComms20SetLogMaxMessageSizeERKNS_12CallbackInfoEEEEEP12napi_value__P10napi_env__P20napi_callback_info__EUlvE_EES8_T_
FNDA:0,_ZN4Napi7details12WrapCallbackIZNS0_L21TemplatedVoidCallbackIXadL_ZN9LoRaComms20SetLogMaxMessageSizeERKNS_12CallbackInfoEEEEEP12napi_value__P10napi_env__P20napi_callback_info__EUlvE_EES8_T_
FN:72,_ZN4Napi7details12WrapCallbackIZNS_10ObjectWrapI9LoRaCommsE27StaticMethodCallbackWrapperEP10napi_env__P20napi_callback_info__EUlvE_EEP12napi_value__T_
FNDA:0,_ZN4Napi7details12WrapCallbackIZNS_10ObjectWrapI9LoRaCommsE27StaticMethodCallbackWrapperEP10napi_env__P20napi_callback_info__EUlvE_EEP12napi_value__T_
FN:72,_ZN4Napi7details12WrapCallbackIZNS_10ObjectWrapI9LoRaCommsE31StaticVoidMethodCallbackWrapperEP10napi_env__P20napi_callback_info__EUlvE_EEP12napi_value__T_
FNDA:0,_ZN4Napi7details12WrapCallbackIZNS_10ObjectWrapI9LoRaCommsE31StaticVoidMethodCallbackWrapperEP10napi_env__P20napi_callback_info__EUlvE_EEP12napi_value__T_
FN:72,_ZN4Napi7details12WrapCallbackIZNS_10ObjectWrapI9LoRaCommsE26ConstructorCallbackWrapperEP10napi_env__P20napi_callback_info__EUlvE_EEP12napi_value__T_
FNDA:0,_ZN4Napi7details12WrapCallbackIZNS_10ObjectWrapI9LoRaCommsE26ConstructorCallbackWrapperEP10napi_env__P20napi_callback_info__EUlvE_EEP12napi_value__T_
FN:72,_ZN4Napi7details12WrapCallbackIZNS_10ObjectWrapI9LoRaCommsE27StaticGetterCallbackWrapperEP10napi_env__P20napi_callback_info__EUlvE_EEP12napi_value__T_
FNDA:0,_ZN4Napi7details12WrapCallbackIZNS_10ObjectWrapI9LoRaCommsE27StaticGetterCallbackWrapperEP10napi_env__P20napi_callback_info__EUlvE_EEP12napi_value__T_
FN:72,_ZN4Napi7details12WrapCallbackIZNS_10ObjectWrapI9LoRaCommsE27StaticSetterCallbackWrapperEP10napi_env__P20napi_callback_info__EUlvE_EEP12napi_value__T_
FNDA:0,_ZN4Napi7details12WrapCallbackIZNS_10ObjectWrapI9LoRaCommsE27StaticSetterCallbackWrapperEP10napi_env__P20napi_callback_info__EUlvE_EEP12napi_value__T_
FN:72,_ZN4Napi7details12WrapCallbackIZNS0_L21TemplatedVoidCallbackIXadL_ZN9LoRaComms5StartERKNS_12CallbackInfoEEEEEP12napi_value__P10napi_env__P20napi_callback_info__EUlvE_EES8_T_
FNDA:0,_ZN4Napi7details12WrapCallbackIZNS0_L21TemplatedVoidCallbackIXadL_ZN9LoRaComms5StartERKNS_12CallbackInfoEEEEEP12napi_value__P10napi_env__P20napi_callback_info__EUlvE_EES8_T_
FN:72,_ZN4Napi7details12WrapCallbackIZNS_12InstanceWrapI9LoRaCommsE29InstanceGetterCallbackWrapperEP10napi_env__P20napi_callback_info__EUlvE_EEP12napi_value__T_
FNDA:0,_ZN4Napi7details12WrapCallbackIZNS_12InstanceWrapI9LoRaCommsE29InstanceGetterCallbackWrapperEP10napi_env__P20napi_callback_info__EUlvE_EEP12napi_value__T_
FN:72,_ZN4Napi7details12WrapCallbackIZNS_12InstanceWrapI9LoRaCommsE29InstanceMethodCallbackWrapperEP10napi_env__P20napi_callback_info__EUlvE_EEP12napi_value__T_
FNDA:0,_ZN4Napi7details12WrapCallbackIZNS_12InstanceWrapI9LoRaCommsE29InstanceMethodCallbackWrapperEP10napi_env__P20napi_callback_info__EUlvE_EEP12napi_value__T_
FN:72,_ZN4Napi7details12WrapCallbackIZNS_12InstanceWrapI9LoRaCommsE33InstanceVoidMethodCallbackWrapperEP10napi_env__P20napi_callback_info__EUlvE_EEP12napi_value__T_
FNDA:0,_ZN4Napi7details12WrapCallbackIZNS_12InstanceWrapI9LoRaCommsE33InstanceVoidMethodCallbackWrapperEP10napi_env__P20napi_callback_info__EUlvE_EEP12napi_value__T_
FN:72,_ZN4Napi7details12WrapCallbackIZNS_12InstanceWrapI9LoRaCommsE29InstanceSetterCallbackWrapperEP10napi_env__P20napi_callback_info__EUlvE_EEP12napi_value__T_
FNDA:0,_ZN4Napi7details12WrapCallbackIZNS_12InstanceWrapI9LoRaCommsE29InstanceSetterCallbackWrapperEP10napi_env__P20napi_callback_info__EUlvE_EEP12napi_value__T_
FN:72,_ZN4Napi7details12WrapCallbackIZNS_11AsyncWorker14OnWorkCompleteENS_3EnvE11napi_statusEUlvE_EEP12napi_value__T_
FNDA:0,_ZN4Napi7details12WrapCallbackIZNS_11AsyncWorker14OnWorkCompleteENS_3EnvE11napi_statusEUlvE_EEP12napi_value__T_
FN:72,_ZN4Napi7details12WrapCallbackIZNS_14RegisterModuleEP10napi_env__P12napi_value__PFNS_6ObjectENS_3EnvES6_EEUlvE_EES5_T_
FNDA:0,_ZN4Napi7details12WrapCallbackIZNS_14RegisterModuleEP10napi_env__P12napi_value__PFNS_6ObjectENS_3EnvES6_EEUlvE_EES5_T_
FN:142,_ZN4Napi7detailsL21TemplatedVoidCallbackIXadL_ZN9LoRaComms18GetLogErrorMessageERKNS_12CallbackInfoEEEEEP12napi_value__P10napi_env__P20napi_callback_info__
FNDA:0,_ZN4Napi7detailsL21TemplatedVoidCallbackIXadL_ZN9LoRaComms18GetLogErrorMessageERKNS_12CallbackInfoEEEEEP12napi_value__P10napi_env__P20napi_callback_info__
FN:142,_ZN4Napi7detailsL21TemplatedVoidCallbackIXadL_ZN9LoRaComms14SetLogWriteHWMERKNS_12CallbackInfoEEEEEP12napi_value__P10napi_env__P20napi_callback_info__
FNDA:0,_ZN4Napi7detailsL21TemplatedVoidCallbackIXadL_ZN9LoRaComms14SetLogWriteHWMERKNS_12CallbackInfoEEEEEP12napi_value__P10napi_env__P20napi_callback_info__
FN:142,_ZN4Napi7detailsL21TemplatedVoidCallbackIXadL_ZN9LoRaComms18SetLogWriteTimeoutERKNS_12CallbackInfoEEEEEP12napi_value__P10napi_env__P20napi_callback_info__
FNDA:0,_ZN4Napi7detailsL21TemplatedVoidCallbackIXadL_ZN9LoRaComms18SetLogWriteTimeoutERKNS_12CallbackInfoEEEEEP12napi_value__P10napi_env__P20napi_callback_info__
FN:142,_ZN4Napi7detailsL21TemplatedVoidCallbackIXadL_ZN9LoRaComms20SetLogMaxMessageSizeERKNS_12CallbackInfoEEEEEP12napi_value__P10napi_env__P20napi_callback_info__
FNDA:0,_ZN4Napi7detailsL21TemplatedVoidCallbackIXadL_ZN9LoRaComms20SetLogMaxMessageSizeERKNS_12CallbackInfoEEEEEP12napi_value__P10napi_env__P20napi_callback_info__
FN:142,_ZN4Napi7detailsL21TemplatedVoidCallbackIXadL_ZN9LoRaComms17GetLogInfoMessageERKNS_12CallbackInfoEEEEEP12napi_value__P10napi_env__P20napi_callback_info__
FNDA:0,_ZN4Napi7detailsL21TemplatedVoidCallbackIXadL_ZN9LoRaComms17GetLogInfoMessageERKNS_12CallbackInfoEEEEEP12napi_value__P10napi_env__P20napi_callback_info__
FN:142,_ZN4Napi7detailsL21TemplatedVoidCallbackIXadL_ZN9LoRaComms12ResetLoggingERKNS_12CallbackInfoEEEEEP12napi_value__P10napi_env__P20napi_callback_info__
FNDA:0,_ZN4Napi7detailsL21TemplatedVoidCallbackIXadL_ZN9LoRaComms12ResetLoggingERKNS_12CallbackInfoEEEEEP12napi_value__P10napi_env__P20napi_callback_info__
FN:142,_ZN4Napi7detailsL21TemplatedVoidCallbackIXadL_ZN9LoRaComms11StopLoggingERKNS_12CallbackInfoEEEEEP12napi_value__P10napi_env__P20napi_callback_info__
FNDA:0,_ZN4Napi7detailsL21TemplatedVoidCallbackIXadL_ZN9LoRaComms11StopLoggingERKNS_12CallbackInfoEEEEEP12napi_value__P10napi_env__P20napi_callback_info__
FN:142,_ZN4Napi7detailsL21TemplatedVoidCallbackIXadL_ZN9LoRaComms12StartLoggingERKNS_12CallbackInfoEEEEEP12napi_value__P10napi_env__P20napi_callback_info__
FNDA:0,_ZN4Napi7detailsL21TemplatedVoidCallbackIXadL_ZN9LoRaComms12StartLoggingERKNS_12CallbackInfoEEEEEP12napi_value__P10napi_env__P20napi_callback_info__
FN:142,_ZN4Napi7detailsL21TemplatedVoidCallbackIXadL_ZN9LoRaComms4StopERKNS_12CallbackInfoEEEEEP12napi_value__P10napi_env__P20napi_callback_info__
FNDA:0,_ZN4Napi7detailsL21TemplatedVoidCallbackIXadL_ZN9LoRaComms4StopERKNS_12CallbackInfoEEEEEP12napi_value__P10napi_env__P20napi_callback_info__
FN:142,_ZN4Napi7detailsL21TemplatedVoidCallbackIXadL_ZN9LoRaComms5ResetERKNS_12CallbackInfoEEEEEP12napi_value__P10napi_env__P20napi_callback_info__
FNDA:0,_ZN4Napi7detailsL21TemplatedVoidCallbackIXadL_ZN9LoRaComms5ResetERKNS_12CallbackInfoEEEEEP12napi_value__P10napi_env__P20napi_callback_info__
FN:142,_ZN4Napi7detailsL21TemplatedVoidCallbackIXadL_ZN9LoRaComms8RecvFromERKNS_12CallbackInfoEEEEEP12napi_value__P10napi_env__P20napi_callback_info__
FNDA:0,_ZN4Napi7detailsL21TemplatedVoidCallbackIXadL_ZN9LoRaComms8RecvFromERKNS_12CallbackInfoEEEEEP12napi_value__P10napi_env__P20napi_callback_info__
FN:142,_ZN4Napi7detailsL21TemplatedVoidCallbackIXadL_ZN9LoRaComms5StartERKNS_12CallbackInfoEEEEEP12napi_value__P10napi_env__P20napi_callback_info__
FNDA:0,_ZN4Napi7detailsL21TemplatedVoidCallbackIXadL_ZN9LoRaComms5StartERKNS_12CallbackInfoEEEEEP12napi_value__P10napi_env__P20napi_callback_info__
FN:142,_ZN4Napi7detailsL21TemplatedVoidCallbackIXadL_ZN9LoRaComms6SendToERKNS_12CallbackInfoEEEEEP12napi_value__P10napi_env__P20napi_callback_info__
FNDA:0,_ZN4Napi7detailsL21TemplatedVoidCallbackIXadL_ZN9LoRaComms6SendToERKNS_12CallbackInfoEEEEEP12napi_value__P10napi_env__P20napi_callback_info__
FN:142,_ZN4Napi7detailsL21TemplatedVoidCallbackIXadL_ZN9LoRaComms12SetGWSendHWMERKNS_12CallbackInfoEEEEEP12napi_value__P10napi_env__P20napi_callback_info__
FNDA:0,_ZN4Napi7detailsL21TemplatedVoidCallbackIXadL_ZN9LoRaComms12SetGWSendHWMERKNS_12CallbackInfoEEEEEP12napi_value__P10napi_env__P20napi_callback_info__
FN:142,_ZN4Napi7detailsL21TemplatedVoidCallbackIXadL_ZN9LoRaComms16SetGWSendTimeoutERKNS_12CallbackInfoEEEEEP12napi_value__P10napi_env__P20napi_callback_info__
FNDA:0,_ZN4Napi7detailsL21TemplatedVoidCallbackIXadL_ZN9LoRaComms16SetGWSendTimeoutERKNS_12CallbackInfoEEEEEP12napi_value__P10napi_env__P20napi_callback_info__
FN:142,_ZN4Napi7detailsL21TemplatedVoidCallbackIXadL_ZN9LoRaComms16SetGWRecvTimeoutERKNS_12CallbackInfoEEEEEP12napi_value__P10napi_env__P20napi_callback_info__
FNDA:0,_ZN4Napi7detailsL21TemplatedVoidCallbackIXadL_ZN9LoRaComms16SetGWRecvTimeoutERKNS_12CallbackInfoEEEEEP12napi_value__P10napi_env__P20napi_callback_info__
FN:143,_ZZN4Napi7detailsL21TemplatedVoidCallbackIXadL_ZN9LoRaComms5StartERKNS_12CallbackInfoEEEEEP12napi_value__P10napi_env__P20napi_callback_info__ENKUlvE_clEv
FNDA:0,_ZZN4Napi7detailsL21TemplatedVoidCallbackIXadL_ZN9LoRaComms5StartERKNS_12CallbackInfoEEEEEP12napi_value__P10napi_env__P20napi_callback_info__ENKUlvE_clEv
FN:143,_ZZN4Napi7detailsL21TemplatedVoidCallbackIXadL_ZN9LoRaComms20SetLogMaxMessageSizeERKNS_12CallbackInfoEEEEEP12napi_value__P10napi_env__P20napi_callback_info__ENKUlvE_clEv
FNDA:0,_ZZN4Napi7detailsL21TemplatedVoidCallbackIXadL_ZN9LoRaComms20SetLogMaxMessageSizeERKNS_12CallbackInfoEEEEEP12napi_value__P10napi_env__P20napi_callback_info__ENKUlvE_clEv
FN:143,_ZZN4Napi7detailsL21TemplatedVoidCallbackIXadL_ZN9LoRaComms18SetLogWriteTimeoutERKNS_12CallbackInfoEEEEEP12napi_value__P10napi_env__P20napi_callback_info__ENKUlvE_clEv
FNDA:0,_ZZN4Napi7detailsL21TemplatedVoidCallbackIXadL_ZN9LoRaComms18SetLogWriteTimeoutERKNS_12CallbackInfoEEEEEP12napi_value__P10napi_env__P20napi_callback_info__ENKUlvE_clEv
FN:143,_ZZN4Napi7detailsL21TemplatedVoidCallbackIXadL_ZN9LoRaComms18GetLogErrorMessageERKNS_12CallbackInfoEEEEEP12napi_value__P10napi_env__P20napi_callback_info__ENKUlvE_clEv
FNDA:0,_ZZN4Napi7detailsL21TemplatedVoidCallbackIXadL_ZN9LoRaComms18GetLogErrorMessageERKNS_12CallbackInfoEEEEEP12napi_value__P10napi_env__P20napi_callback_info__ENKUlvE_clEv
FN:143,_ZZN4Napi7detailsL21TemplatedVoidCallbackIXadL_ZN9LoRaComms14SetLogWriteHWMERKNS_12CallbackInfoEEEEEP12napi_value__P10napi_env__P20napi_callback_info__ENKUlvE_clEv
FNDA:0,_ZZN4Napi7detailsL21TemplatedVoidCallbackIXadL_ZN9LoRaComms14SetLogWriteHWMERKNS_12CallbackInfoEEEEEP12napi_value__P10napi_env__P20napi_callback_info__ENKUlvE_clEv
FN:143,_ZZN4Napi7detailsL21TemplatedVoidCallbackIXadL_ZN9LoRaComms4StopERKNS_12CallbackInfoEEEEEP12napi_value__P10napi_env__P20napi_callback_info__ENKUlvE_clEv
FNDA:0,_ZZN4Napi7detailsL21TemplatedVoidCallbackIXadL_ZN9LoRaComms4StopERKNS_12CallbackInfoEEEEEP12napi_value__P10napi_env__P20napi_callback_info__ENKUlvE_clEv
FN:143,_ZZN4Napi7detailsL21TemplatedVoidCallbackIXadL_ZN9LoRaComms17GetLogInfoMessageERKNS_12CallbackInfoEEEEEP12napi_value__P10napi_env__P20napi_callback_info__ENKUlvE_clEv
FNDA:0,_ZZN4Napi7detailsL21TemplatedVoidCallbackIXadL_ZN9LoRaComms17GetLogInfoMessageERKNS_12CallbackInfoEEEEEP12napi_value__P10napi_env__P20napi_callback_info__ENKUlvE_clEv
FN:143,_ZZN4Napi7detailsL21TemplatedVoidCallbackIXadL_ZN9LoRaComms5ResetERKNS_12CallbackInfoEEEEEP12napi_value__P10napi_env__P20napi_callback_info__ENKUlvE_clEv
FNDA:0,_ZZN4Napi7detailsL21TemplatedVoidCallbackIXadL_ZN9LoRaComms5ResetERKNS_12CallbackInfoEEEEEP12napi_value__P10napi_env__P20napi_callback_info__ENKUlvE_clEv
FN:143,_ZZN4Napi7detailsL21TemplatedVoidCallbackIXadL_ZN9LoRaComms12ResetLoggingERKNS_12CallbackInfoEEEEEP12napi_value__P10napi_env__P20napi_callback_info__ENKUlvE_clEv
FNDA:0,_ZZN4Napi7detailsL21TemplatedVoidCallbackIXadL_ZN9LoRaComms12ResetLoggingERKNS_12CallbackInfoEEEEEP12napi_value__P10napi_env__P20napi_callback_info__ENKUlvE_clEv
FN:143,_ZZN4Napi7detailsL21TemplatedVoidCallbackIXadL_ZN9LoRaComms11StopLoggingERKNS_12CallbackInfoEEEEEP12napi_value__P10napi_env__P20napi_callback_info__ENKUlvE_clEv
FNDA:0,_ZZN4Napi7detailsL21TemplatedVoidCallbackIXadL_ZN9LoRaComms11StopLoggingERKNS_12CallbackInfoEEEEEP12napi_value__P10napi_env__P20napi_callback_info__ENKUlvE_clEv
FN:143,_ZZN4Napi7detailsL21TemplatedVoidCallbackIXadL_ZN9LoRaComms8RecvFromERKNS_12CallbackInfoEEEEEP12napi_value__P10napi_env__P20napi_callback_info__ENKUlvE_clEv
FNDA:0,_ZZN4Napi7detailsL21TemplatedVoidCallbackIXadL_ZN9LoRaComms8RecvFromERKNS_12CallbackInfoEEEEEP12napi_value__P10napi_env__P20napi_callback_info__ENKUlvE_clEv
FN:143,_ZZN4Napi7detailsL21TemplatedVoidCallbackIXadL_ZN9LoRaComms6SendToERKNS_12CallbackInfoEEEEEP12napi_value__P10napi_env__P20napi_callback_info__ENKUlvE_clEv
FNDA:0,_ZZN4Napi7detailsL21TemplatedVoidCallbackIXadL_ZN9LoRaComms6SendToERKNS_12CallbackInfoEEEEEP12napi_value__P10napi_env__P20napi_callback_info__ENKUlvE_clEv
FN:143,_ZZN4Napi7detailsL21TemplatedVoidCallbackIXadL_ZN9LoRaComms12SetGWSendHWMERKNS_12CallbackInfoEEEEEP12napi_value__P10napi_env__P20napi_callback_info__ENKUlvE_clEv
FNDA:0,_ZZN4Napi7detailsL21TemplatedVoidCallbackIXadL_ZN9LoRaComms12SetGWSendHWMERKNS_12CallbackInfoEEEEEP12napi_value__P10napi_env__P20napi_callback_info__ENKUlvE_clEv
FN:143,_ZZN4Napi7detailsL21TemplatedVoidCallbackIXadL_ZN9LoRaComms16SetGWSendTimeoutERKNS_12CallbackInfoEEEEEP12napi_value__P10napi_env__P20napi_callback_info__ENKUlvE_clEv
FNDA:0,_ZZN4Napi7detailsL21TemplatedVoidCallbackIXadL_ZN9LoRaComms16SetGWSendTimeoutERKNS_12CallbackInfoEEEEEP12napi_value__P10napi_env__P20napi_callback_info__ENKUlvE_clEv
FN:143,_ZZN4Napi7detailsL21TemplatedVoidCallbackIXadL_ZN9LoRaComms16SetGWRecvTimeoutERKNS_12CallbackInfoEEEEEP12napi_value__P10napi_env__P20napi_callback_info__ENKUlvE_clEv
FNDA:0,_ZZN4Napi7detailsL21TemplatedVoidCallbackIXadL_ZN9LoRaComms16SetGWRecvTimeoutERKNS_12CallbackInfoEEEEEP12napi_value__P10napi_env__P20napi_callback_info__ENKUlvE_clEv
FN:143,_ZZN4Napi7detailsL21TemplatedVoidCallbackIXadL_ZN9LoRaComms12StartLoggingERKNS_12CallbackInfoEEEEEP12napi_value__P10napi_env__P20napi_callback_info__ENKUlvE_clEv
FNDA:0,_ZZN4Napi7detailsL21TemplatedVoidCallbackIXadL_ZN9LoRaComms12StartLoggingERKNS_12CallbackInfoEEEEEP12napi_value__P10napi_env__P20napi_callback_info__ENKUlvE_clEv
FN:152,_ZN4Napi7detailsL17TemplatedCallbackIXadL_ZN9LoRaComms20GetLogMaxMessageSizeERKNS_12CallbackInfoEEEEEP12napi_value__P10napi_env__P20napi_callback_info__
FNDA:0,_ZN4Napi7detailsL17TemplatedCallbackIXadL_ZN9LoRaComms20GetLogMaxMessageSizeERKNS_12CallbackInfoEEEEEP12napi_value__P10napi_env__P20napi_callback_info__
FN:153,_ZZN4Napi7detailsL17TemplatedCallbackIXadL_ZN9LoRaComms20GetLogMaxMessageSizeERKNS_12CallbackInfoEEEEEP12napi_value__P10napi_env__P20napi_callback_info__ENKUlvE_clEv
FNDA:0,_ZZN4Napi7detailsL17TemplatedCallbackIXadL_ZN9LoRaComms20GetLogMaxMessageSizeERKNS_12CallbackInfoEEEEEP12napi_value__P10napi_env__P20napi_callback_info__ENKUlvE_clEv
FN:372,_ZN4Napi14RegisterModuleEP10napi_env__P12napi_value__PFNS_6ObjectENS_3EnvES4_E
FNDA:0,_ZN4Napi14RegisterModuleEP10napi_env__P12napi_value__PFNS_6ObjectENS_3EnvES4_E
FN:375,_ZZN4Napi14RegisterModuleEP10napi_env__P12napi_value__PFNS_6ObjectENS_3EnvES4_EENKUlvE_clEv
FNDA:0,_ZZN4Napi14RegisterModuleEP10napi_env__P12napi_value__PFNS_6ObjectENS_3EnvES4_EENKUlvE_clEv
FN:451,_ZN4Napi3EnvC2EP10napi_env__
FNDA:0,_ZN4Napi3EnvC2EP10napi_env__
FN:454,_ZNK4Napi3EnvcvP10napi_env__Ev
FNDA:0,_ZNK4Napi3EnvcvP10napi_env__Ev
FN:465,_ZNK4Napi3Env9UndefinedEv
FNDA:0,_ZNK4Napi3Env9UndefinedEv
FN:472,_ZNK4Napi3Env4NullEv
FNDA:0,_ZNK4Napi3Env4NullEv
FN:479,_ZNK4Napi3Env18IsExceptionPendingEv
FNDA:0,_ZNK4Napi3Env18IsExceptionPendingEv
FN:581,_ZN4Napi5ValueC2EP10napi_env__P12napi_value__
FNDA:0,_ZN4Napi5ValueC2EP10napi_env__P12napi_value__
FN:584,_ZNK4Napi5ValuecvP12napi_value__Ev
FNDA:0,_ZNK4Napi5ValuecvP12napi_value__Ev
FN:603,_ZNK4Napi5Value3EnvEv
FNDA:0,_ZNK4Napi5Value3EnvEv
FN:607,_ZNK4Napi5Value7IsEmptyEv
FNDA:0,_ZNK4Napi5Value7IsEmptyEv
FN:744,_ZNK4Napi5Value2AsINS_6BufferIhEEEET_v
FNDA:0,_ZNK4Napi5Value2AsINS_6BufferIhEEEET_v
FN:744,_ZNK4Napi5Value2AsINS_6NumberEEET_v
FNDA:0,_ZNK4Napi5Value2AsINS_6NumberEEET_v
FN:744,_ZNK4Napi5Value2AsINS_6StringEEET_v
FNDA:0,_ZNK4Napi5Value2AsINS_6StringEEET_v
FN:744,_ZNK4Napi5Value2AsINS_6ObjectEEET_v
FNDA:0,_ZNK4Napi5Value2AsINS_6ObjectEEET_v
FN:744,_ZNK4Napi5Value2AsINS_8FunctionEEET_v
FNDA:0,_ZNK4Napi5Value2AsINS_8FunctionEEET_v
FN:808,_ZN4Napi6Number3NewEP10napi_env__d
FNDA:0,_ZN4Napi6Number3NewEP10napi_env__d
FN:818,_ZN4Napi6NumberC2EP10napi_env__P12napi_value__
FNDA:0,_ZN4Napi6NumberC2EP10napi_env__P12napi_value__
FN:821,_ZNK4Napi6NumbercviEv
FNDA:0,_ZNK4Napi6NumbercviEv
FN:825,_ZNK4Napi6NumbercvjEv
FNDA:0,_ZNK4Napi6NumbercvjEv
FN:829,_ZNK4Napi6NumbercvlEv
FNDA:0,_ZNK4Napi6NumbercvlEv
FN:841,_ZNK4Napi6Number10Int32ValueEv
FNDA:0,_ZNK4Napi6Number10Int32ValueEv
FN:848,_ZNK4Napi6Number11Uint32ValueEv
FNDA:0,_ZNK4Napi6Number11Uint32ValueEv
FN:855,_ZNK4Napi6Number10Int64ValueEv
FNDA:0,_ZNK4Napi6Number10Int64ValueEv
FN:974,_ZN4Napi4NameC2EP10napi_env__P12napi_value__
FNDA:0,_ZN4Napi4NameC2EP10napi_env__P12napi_value__
FN:1032,_ZN4Napi6StringC2EP10napi_env__P12napi_value__
FNDA:0,_ZN4Napi6StringC2EP10napi_env__P12napi_value__
FN:1035,_ZNK4Napi6StringcvNSt7__cxx1112basic_stringIcSt11char_traitsIcESaIcEEEEv
FNDA:0,_ZNK4Napi6StringcvNSt7__cxx1112basic_stringIcSt11char_traitsIcESaIcEEEEv
FN:1043,_ZNK4Napi6String9Utf8ValueB5cxx11Ev
FNDA:0,_ZNK4Napi6String9Utf8ValueB5cxx11Ev
FN:1198,_ZN4Napi7details11vf_fallbackINS_8FunctionEE4FromEP10napi_env__RKS2_
FNDA:0,_ZN4Napi7details11vf_fallbackINS_8FunctionEE4FromEP10napi_env__RKS2_
FN:1198,_ZN4Napi7details11vf_fallbackINS_5ValueEE4FromEP10napi_env__RKS2_
FNDA:0,_ZN4Napi7details11vf_fallbackINS_5ValueEE4FromEP10napi_env__RKS2_
FN:1218,_ZN4Napi5Value4FromINS_8FunctionEEES0_P10napi_env__RKT_
FNDA:0,_ZN4Napi5Value4FromINS_8FunctionEEES0_P10napi_env__RKT_
FN:1218,_ZN4Napi5Value4FromIS0_EES0_P10napi_env__RKT_
FNDA:0,_ZN4Napi5Value4FromIS0_EES0_P10napi_env__RKT_
FN:1284,_ZN4Napi6Object3NewEP10napi_env__
FNDA:0,_ZN4Napi6Object3NewEP10napi_env__
FN:1294,_ZN4Napi6ObjectC2EP10napi_env__P12napi_value__
FNDA:0,_ZN4Napi6ObjectC2EP10napi_env__P12napi_value__
FN:1380,_ZNK4Napi6Object3GetEPKc
FNDA:0,_ZNK4Napi6Object3GetEPKc
FN:1405,_ZN4Napi6Object3SetINS_8FunctionEEEbPKcRKT_
FNDA:0,_ZN4Napi6Object3SetINS_8FunctionEEEbPKcRKT_
FN:1405,_ZN4Napi6Object3SetINS_5ValueEEEbPKcRKT_
FNDA:0,_ZN4Napi6Object3SetINS_5ValueEEEbPKcRKT_
FN:1934,_ZN4Napi10TypedArrayC2EP10napi_env__P12napi_value__
FNDA:0,_ZN4Napi10TypedArrayC2EP10napi_env__P12napi_value__
FN:2044,_ZN4Napi12TypedArrayOfIhEC2EP10napi_env__P12napi_value__
FNDA:0,_ZN4Napi12TypedArrayOfIhEC2EP10napi_env__P12napi_value__
FN:2099,_ZN4NapiL14CreateFunctionINS_18MethodCallbackDataI9LoRaCommsPFNS_5ValueERKNS_12CallbackInfoEEEEEE11napi_statusP10napi_env__PKcPFP12napi_value__SC_P20napi_callback_info__EPT_PSG_
FNDA:0,_ZN4NapiL14CreateFunctionINS_18MethodCallbackDataI9LoRaCommsPFNS_5ValueERKNS_12CallbackInfoEEEEEE11napi_statusP10napi_env__PKcPFP12napi_value__SC_P20napi_callback_info__EPT_PSG_
FN:2099,_ZN4NapiL14CreateFunctionINS_18MethodCallbackDataI9LoRaCommsPFvRKNS_12CallbackInfoEEEEEE11napi_statusP10napi_env__PKcPFP12napi_value__SB_P20napi_callback_info__EPT_PSF_
FNDA:0,_ZN4NapiL14CreateFunctionINS_18MethodCallbackDataI9LoRaCommsPFvRKNS_12CallbackInfoEEEEEE11napi_statusP10napi_env__PKcPFP12napi_value__SB_P20napi_callback_info__EPT_PSF_
FN:2187,_ZN4Napi8FunctionC2EP10napi_env__P12napi_value__
FNDA:0,_ZN4Napi8FunctionC2EP10napi_env__P12napi_value__
FN:2210,_ZNK4Napi8Function4CallEP12napi_value__RKSt16initializer_listIS2_E
FNDA:0,_ZNK4Napi8Function4CallEP12napi_value__RKSt16initializer_listIS2_E
FN:2215,_ZNK4Napi8Function4CallEP12napi_value__RKSt6vectorIS2_SaIS2_EE
FNDA:0,_ZNK4Napi8Function4CallEP12napi_value__RKSt6vectorIS2_SaIS2_EE
FN:2220,_ZNK4Napi8Function4CallEP12napi_value__mPKS2_
FNDA:0,_ZNK4Napi8Function4CallEP12napi_value__mPKS2_
FN:2230,_ZNK4Napi8Function12MakeCallbackEP12napi_value__RKSt16initializer_listIS2_EP20napi_async_context__
FNDA:0,_ZNK4Napi8Function12MakeCallbackEP12napi_value__RKSt16initializer_listIS2_EP20napi_async_context__
FN:2244,_ZNK4Napi8Function12MakeCallbackEP12napi_value__mPKS2_P20napi_async_context__
FNDA:0,_ZNK4Napi8Function12MakeCallbackEP12napi_value__mPKS2_P20napi_async_context__
FN:2394,_ZN4Napi6BufferIhEC2EP10napi_env__P12napi_value__
FNDA:0,_ZN4Napi6BufferIhEC2EP10napi_env__P12napi_value__
FN:2404,_ZNK4Napi6BufferIhE6LengthEv
FNDA:0,_ZNK4Napi6BufferIhE6LengthEv
FN:2410,_ZNK4Napi6BufferIhE4DataEv
FNDA:0,_ZNK4Napi6BufferIhE4DataEv
FN:2416,_ZNK4Napi6BufferIhE10EnsureInfoEv
FNDA:0,_ZNK4Napi6BufferIhE10EnsureInfoEv
FN:2434,_ZN4Napi5Error3NewEP10napi_env__
FNDA:0,_ZN4Napi5Error3NewEP10napi_env__
FN:2486,_ZN4Napi5Error3NewEP10napi_env__RKNSt7__cxx1112basic_stringIcSt11char_traitsIcESaIcEEE
FNDA:0,_ZN4Napi5Error3NewEP10napi_env__RKNSt7__cxx1112basic_stringIcSt11char_traitsIcESaIcEEE
FN:2490,_ZN4Napi5Error5FatalEPKcS2_
FNDA:0,_ZN4Napi5Error5FatalEPKcS2_
FN:2497,_ZN4Napi5ErrorC2EP10napi_env__P12napi_value__
FNDA:0,_ZN4Napi5ErrorC2EP10napi_env__P12napi_value__
FN:2533,_ZNK4Napi5Error7MessageB5cxx11Ev
FNDA:0,_ZNK4Napi5Error7MessageB5cxx11Ev
FN:2557,_ZNK4Napi5Error26ThrowAsJavaScriptExceptionEv
FNDA:0,_ZNK4Napi5Error26ThrowAsJavaScriptExceptionEv
FN:2605,_ZNK4Napi5Error4whatEv
FNDA:0,_ZNK4Napi5Error4whatEv
FN:2612,_ZN4Napi5Error3NewIS0_EET_P10napi_env__PKcmPF11napi_statusS4_P12napi_value__S9_PS9_E
FNDA:0,_ZN4Napi5Error3NewIS0_EET_P10napi_env__PKcmPF11napi_statusS4_P12napi_value__S9_PS9_E
FN:2660,_ZN4Napi9ReferenceINS_6BufferIhEEE3NewERKS2_j
FNDA:0,_ZN4Napi9ReferenceINS_6BufferIhEEE3NewERKS2_j
FN:2660,_ZN4Napi9ReferenceINS_6ObjectEE3NewERKS1_j
FNDA:0,_ZN4Napi9ReferenceINS_6ObjectEE3NewERKS1_j
FN:2660,_ZN4Napi9ReferenceINS_8FunctionEE3NewERKS1_j
FNDA:0,_ZN4Napi9ReferenceINS_8FunctionEE3NewERKS1_j
FN:2677,_ZN4Napi9ReferenceINS_6ObjectEEC2Ev
FNDA:0,_ZN4Napi9ReferenceINS_6ObjectEEC2Ev
FN:2681,_ZN4Napi9ReferenceINS_6ObjectEEC2EP10napi_env__P10napi_ref__
FNDA:0,_ZN4Napi9ReferenceINS_6ObjectEEC2EP10napi_env__P10napi_ref__
FN:2681,_ZN4Napi9ReferenceINS_6BufferIhEEEC2EP10napi_env__P10napi_ref__
FNDA:0,_ZN4Napi9ReferenceINS_6BufferIhEEEC2EP10napi_env__P10napi_ref__
FN:2681,_ZN4Napi9ReferenceINS_8FunctionEEC2EP10napi_env__P10napi_ref__
FNDA:0,_ZN4Napi9ReferenceINS_8FunctionEEC2EP10napi_env__P10napi_ref__
FN:2686,_ZN4Napi9ReferenceINS_6ObjectEED2Ev
FNDA:0,_ZN4Napi9ReferenceINS_6ObjectEED2Ev
FN:2686,_ZN4Napi9ReferenceINS_6BufferIhEEED2Ev
FNDA:0,_ZN4Napi9ReferenceINS_6BufferIhEEED2Ev
FN:2686,_ZN4Napi9ReferenceINS_8FunctionEED2Ev
FNDA:0,_ZN4Napi9ReferenceINS_8FunctionEED2Ev
FN:2697,_ZN4Napi9ReferenceINS_8FunctionEEC2EOS2_
FNDA:0,_ZN4Napi9ReferenceINS_8FunctionEEC2EOS2_
FN:2697,_ZN4Napi9ReferenceINS_6ObjectEEC2EOS2_
FNDA:0,_ZN4Napi9ReferenceINS_6ObjectEEC2EOS2_
FN:2705,_ZN4Napi9ReferenceINS_6ObjectEEaSEOS2_
FNDA:0,_ZN4Napi9ReferenceINS_6ObjectEEaSEOS2_
FN:2747,_ZNK4Napi9ReferenceINS_6ObjectEE3EnvEv
FNDA:0,_ZNK4Napi9ReferenceINS_6ObjectEE3EnvEv
FN:2747,_ZNK4Napi9ReferenceINS_8FunctionEE3EnvEv
FNDA:0,_ZNK4Napi9ReferenceINS_8FunctionEE3EnvEv
FN:2752,_ZNK4Napi9ReferenceINS_6ObjectEE7IsEmptyEv
FNDA:0,_ZNK4Napi9ReferenceINS_6ObjectEE7IsEmptyEv
FN:2752,_ZNK4Napi9ReferenceINS_8FunctionEE7IsEmptyEv
FNDA:0,_ZNK4Napi9ReferenceINS_8FunctionEE7IsEmptyEv
FN:2757,_ZNK4Napi9ReferenceINS_8FunctionEE5ValueEv
FNDA:0,_ZNK4Napi9ReferenceINS_8FunctionEE5ValueEv
FN:2757,_ZNK4Napi9ReferenceINS_6ObjectEE5ValueEv
FNDA:0,_ZNK4Napi9ReferenceINS_6ObjectEE5ValueEv
FN:2785,_ZN4Napi9ReferenceINS_6ObjectEE5ResetEv
FNDA:0,_ZN4Napi9ReferenceINS_6ObjectEE5ResetEv
FN:2824,_ZN4Napi10PersistentINS_6BufferIhEEEENS_9ReferenceIT_EES4_
FNDA:0,_ZN4Napi10PersistentINS_6BufferIhEEEENS_9ReferenceIT_EES4_
FN:2828,_ZN4Napi10PersistentENS_6ObjectE
FNDA:0,_ZN4Napi10PersistentENS_6ObjectE
FN:2832,_ZN4Napi10PersistentENS_8FunctionE
FNDA:0,_ZN4Napi10PersistentENS_8FunctionE
FN:2843,_ZN4Napi15ObjectReferenceC2EP10napi_env__P10napi_ref__
FNDA:0,_ZN4Napi15ObjectReferenceC2EP10napi_env__P10napi_ref__
FN:2846,_ZN4Napi15ObjectReferenceC2EONS_9ReferenceINS_6ObjectEEE
FNDA:0,_ZN4Napi15ObjectReferenceC2EONS_9ReferenceINS_6ObjectEEE
FN:2868,_ZNK4Napi15ObjectReference3GetEPKc
FNDA:0,_ZNK4Napi15ObjectReference3GetEPKc
FN:2908,_ZN4Napi15ObjectReference3SetEPKcNS_5ValueE
FNDA:0,_ZN4Napi15ObjectReference3SetEPKcNS_5ValueE
FN:3024,_ZN4Napi17FunctionReferenceC2EONS_9ReferenceINS_8FunctionEEE
FNDA:0,_ZN4Napi17FunctionReferenceC2EONS_9ReferenceINS_8FunctionEEE
FN:3093,_ZNK4Napi17FunctionReference4CallEP12napi_value__RKSt16initializer_listIS2_E
FNDA:0,_ZNK4Napi17FunctionReference4CallEP12napi_value__RKSt16initializer_listIS2_E
FN:3110,_ZNK4Napi17FunctionReference4CallEP12napi_value__RKSt6vectorIS2_SaIS2_EE
FNDA:0,_ZNK4Napi17FunctionReference4CallEP12napi_value__RKSt6vectorIS2_SaIS2_EE
FN:3144,_ZNK4Napi17FunctionReference12MakeCallbackEP12napi_value__RKSt16initializer_listIS2_EP20napi_async_context__
FNDA:0,_ZNK4Napi17FunctionReference12MakeCallbackEP12napi_value__RKSt16initializer_listIS2_EP20napi_async_context__
FN:3242,_ZN4Napi12CallbackInfoC2EP10napi_env__P20napi_callback_info__
FNDA:0,_ZN4Napi12CallbackInfoC2EP10napi_env__P20napi_callback_info__
FN:3260,_ZN4Napi12CallbackInfoD2Ev
FNDA:0,_ZN4Napi12CallbackInfoD2Ev
FN:3277,_ZNK4Napi12CallbackInfo3EnvEv
FNDA:0,_ZNK4Napi12CallbackInfo3EnvEv
FN:3285,_ZNK4Napi12CallbackInfoixEm
FNDA:0,_ZNK4Napi12CallbackInfoixEm
FN:3289,_ZNK4Napi12CallbackInfo4ThisEv
FNDA:0,_ZNK4Napi12CallbackInfo4ThisEv
FN:3296,_ZNK4Napi12CallbackInfo4DataEv
FNDA:0,_ZNK4Napi12CallbackInfo4DataEv
FN:3300,_ZN4Napi12CallbackInfo7SetDataEPv
FNDA:0,_ZN4Napi12CallbackInfo7SetDataEPv
FN:3624,_ZN4Napi12InstanceWrapI9LoRaCommsE14AttachPropDataEP10napi_env__P12napi_value__PK24napi_property_descriptor
FNDA:0,_ZN4Napi12InstanceWrapI9LoRaCommsE14AttachPropDataEP10napi_env__P12napi_value__PK24napi_property_descriptor
FN:3866,_ZN4Napi12InstanceWrapI9LoRaCommsE33InstanceVoidMethodCallbackWrapperEP10napi_env__P20napi_callback_info__
FNDA:0,_ZN4Napi12InstanceWrapI9LoRaCommsE33InstanceVoidMethodCallbackWrapperEP10napi_env__P20napi_callback_info__
FN:3869,_ZZN4Napi12InstanceWrapI9LoRaCommsE33InstanceVoidMethodCallbackWrapperEP10napi_env__P20napi_callback_info__ENKUlvE_clEv
FNDA:0,_ZZN4Napi12InstanceWrapI9LoRaCommsE33InstanceVoidMethodCallbackWrapperEP10napi_env__P20napi_callback_info__ENKUlvE_clEv
FN:3882,_ZN4Napi12InstanceWrapI9LoRaCommsE29InstanceMethodCallbackWrapperEP10napi_env__P20napi_callback_info__
FNDA:0,_ZN4Napi12InstanceWrapI9LoRaCommsE29InstanceMethodCallbackWrapperEP10napi_env__P20napi_callback_info__
FN:3885,_ZZN4Napi12InstanceWrapI9LoRaCommsE29InstanceMethodCallbackWrapperEP10napi_env__P20napi_callback_info__ENKUlvE_clEv
FNDA:0,_ZZN4Napi12InstanceWrapI9LoRaCommsE29InstanceMethodCallbackWrapperEP10napi_env__P20napi_callback_info__ENKUlvE_clEv
FN:3897,_ZN4Napi12InstanceWrapI9LoRaCommsE29InstanceGetterCallbackWrapperEP10napi_env__P20napi_callback_info__
FNDA:0,_ZN4Napi12InstanceWrapI9LoRaCommsE29InstanceGetterCallbackWrapperEP10napi_env__P20napi_callback_info__
FN:3900,_ZZN4Napi12InstanceWrapI9LoRaCommsE29InstanceGetterCallbackWrapperEP10napi_env__P20napi_callback_info__ENKUlvE_clEv
FNDA:0,_ZZN4Napi12InstanceWrapI9LoRaCommsE29InstanceGetterCallbackWrapperEP10napi_env__P20napi_callback_info__ENKUlvE_clEv
FN:3912,_ZN4Napi12InstanceWrapI9LoRaCommsE29InstanceSetterCallbackWrapperEP10napi_env__P20napi_callback_info__
FNDA:0,_ZN4Napi12InstanceWrapI9LoRaCommsE29InstanceSetterCallbackWrapperEP10napi_env__P20napi_callback_info__
FN:3915,_ZZN4Napi12InstanceWrapI9LoRaCommsE29InstanceSetterCallbackWrapperEP10napi_env__P20napi_callback_info__ENKUlvE_clEv
FNDA:0,_ZZN4Napi12InstanceWrapI9LoRaCommsE29InstanceSetterCallbackWrapperEP10napi_env__P20napi_callback_info__ENKUlvE_clEv
FN:3944,_ZN4Napi10ObjectWrapI9LoRaCommsEC2ERKNS_12CallbackInfoE
FNDA:0,_ZN4Napi10ObjectWrapI9LoRaCommsEC2ERKNS_12CallbackInfoE
FN:3958,_ZN4Napi10ObjectWrapI9LoRaCommsED0Ev
FNDA:0,_ZN4Napi10ObjectWrapI9LoRaCommsED0Ev
FN:3958,_ZN4Napi10ObjectWrapI9LoRaCommsED2Ev
FNDA:0,_ZN4Napi10ObjectWrapI9LoRaCommsED2Ev
FN:3972,_ZN4Napi10ObjectWrapI9LoRaCommsE6UnwrapENS_6ObjectE
FNDA:0,_ZN4Napi10ObjectWrapI9LoRaCommsE6UnwrapENS_6ObjectE
FN:3981,_ZN4Napi10ObjectWrapI9LoRaCommsE11DefineClassENS_3EnvEPKcmPK24napi_property_descriptorPv
FNDA:0,_ZN4Napi10ObjectWrapI9LoRaCommsE11DefineClassENS_3EnvEPKcmPK24napi_property_descriptorPv
FN:4055,_ZN4Napi10ObjectWrapI9LoRaCommsE11DefineClassENS_3EnvEPKcRKSt16initializer_listINS_23ClassPropertyDescriptorIS1_EEEPv
FNDA:0,_ZN4Napi10ObjectWrapI9LoRaCommsE11DefineClassENS_3EnvEPKcRKSt16initializer_listINS_23ClassPropertyDescriptorIS1_EEEPv
FN:4146,_ZN4Napi10ObjectWrapI9LoRaCommsE12StaticMethodIXadL_ZNS1_5StartERKNS_12CallbackInfoEEEEENS_23ClassPropertyDescriptorIS1_EEPKc24napi_property_attributesPv
FNDA:0,_ZN4Napi10ObjectWrapI9LoRaCommsE12StaticMethodIXadL_ZNS1_5StartERKNS_12CallbackInfoEEEEENS_23ClassPropertyDescriptorIS1_EEPKc24napi_property_attributesPv
FN:4146,_ZN4Napi10ObjectWrapI9LoRaCommsE12StaticMethodIXadL_ZNS1_4StopERKNS_12CallbackInfoEEEEENS_23ClassPropertyDescriptorIS1_EEPKc24napi_property_attributesPv
FNDA:0,_ZN4Napi10ObjectWrapI9LoRaCommsE12StaticMethodIXadL_ZNS1_4StopERKNS_12CallbackInfoEEEEENS_23ClassPropertyDescriptorIS1_EEPKc24napi_property_attributesPv
FN:4146,_ZN4Napi10ObjectWrapI9LoRaCommsE12StaticMethodIXadL_ZNS1_5ResetERKNS_12CallbackInfoEEEEENS_23ClassPropertyDescriptorIS1_EEPKc24napi_property_attributesPv
FNDA:0,_ZN4Napi10ObjectWrapI9LoRaCommsE12StaticMethodIXadL_ZNS1_5ResetERKNS_12CallbackInfoEEEEENS_23ClassPropertyDescriptorIS1_EEPKc24napi_property_attributesPv
FN:4146,_ZN4Napi10ObjectWrapI9LoRaCommsE12StaticMethodIXadL_ZNS1_8RecvFromERKNS_12CallbackInfoEEEEENS_23ClassPropertyDescriptorIS1_EEPKc24napi_property_attributesPv
FNDA:0,_ZN4Napi10ObjectWrapI9LoRaCommsE12StaticMethodIXadL_ZNS1_8RecvFromERKNS_12CallbackInfoEEEEENS_23ClassPropertyDescriptorIS1_EEPKc24napi_property_attributesPv
FN:4146,_ZN4Napi10ObjectWrapI9LoRaCommsE12StaticMethodIXadL_ZNS1_6SendToERKNS_12CallbackInfoEEEEENS_23ClassPropertyDescriptorIS1_EEPKc24napi_property_attributesPv
FNDA:0,_ZN4Napi10ObjectWrapI9LoRaCommsE12StaticMethodIXadL_ZNS1_6SendToERKNS_12CallbackInfoEEEEENS_23ClassPropertyDescriptorIS1_EEPKc24napi_property_attributesPv
FN:4146,_ZN4Napi10ObjectWrapI9LoRaCommsE12StaticMethodIXadL_ZNS1_12SetGWSendHWMERKNS_12CallbackInfoEEEEENS_23ClassPropertyDescriptorIS1_EEPKc24napi_property_attributesPv
FNDA:0,_ZN4Napi10ObjectWrapI9LoRaCommsE12StaticMethodIXadL_ZNS1_12SetGWSendHWMERKNS_12CallbackInfoEEEEENS_23ClassPropertyDescriptorIS1_EEPKc24napi_property_attributesPv
FN:4146,_ZN4Napi10ObjectWrapI9LoRaCommsE12StaticMethodIXadL_ZNS1_16SetGWSendTimeoutERKNS_12CallbackInfoEEEEENS_23ClassPropertyDescriptorIS1_EEPKc24napi_property_attributesPv
FNDA:0,_ZN4Napi10ObjectWrapI9LoRaCommsE12StaticMethodIXadL_ZNS1_16SetGWSendTimeoutERKNS_12CallbackInfoEEEEENS_23ClassPropertyDescriptorIS1_EEPKc24napi_property_attributesPv
FN:4146,_ZN4Napi10ObjectWrapI9LoRaCommsE12StaticMethodIXadL_ZNS1_16SetGWRecvTimeoutERKNS_12CallbackInfoEEEEENS_23ClassPropertyDescriptorIS1_EEPKc24napi_property_attributesPv
FNDA:0,_ZN4Napi10ObjectWrapI9LoRaCommsE12StaticMethodIXadL_ZNS1_16SetGWRecvTimeoutERKNS_12CallbackInfoEEEEENS_23ClassPropertyDescriptorIS1_EEPKc24napi_property_attributesPv
FN:4146,_ZN4Napi10ObjectWrapI9LoRaCommsE12StaticMethodIXadL_ZNS1_12StartLoggingERKNS_12CallbackInfoEEEEENS_23ClassPropertyDescriptorIS1_EEPKc24napi_property_attributesPv
FNDA:0,_ZN4Napi10ObjectWrapI9LoRaCommsE12StaticMethodIXadL_ZNS1_12StartLoggingERKNS_12CallbackInfoEEEEENS_23ClassPropertyDescriptorIS1_EEPKc24napi_property_attributesPv
FN:4146,_ZN4Napi10ObjectWrapI9LoRaCommsE12StaticMethodIXadL_ZNS1_11StopLoggingERKNS_12CallbackInfoEEEEENS_23ClassPropertyDescriptorIS1_EEPKc24napi_property_attributesPv
FNDA:0,_ZN4Napi10ObjectWrapI9LoRaCommsE12StaticMethodIXadL_ZNS1_11StopLoggingERKNS_12CallbackInfoEEEEENS_23ClassPropertyDescriptorIS1_EEPKc24napi_property_attributesPv
FN:4146,_ZN4Napi10ObjectWrapI9LoRaCommsE12StaticMethodIXadL_ZNS1_12ResetLoggingERKNS_12CallbackInfoEEEEENS_23ClassPropertyDescriptorIS1_EEPKc24napi_property_attributesPv
FNDA:0,_ZN4Napi10ObjectWrapI9LoRaCommsE12StaticMethodIXadL_ZNS1_12ResetLoggingERKNS_12CallbackInfoEEEEENS_23ClassPropertyDescriptorIS1_EEPKc24napi_property_attributesPv
FN:4146,_ZN4Napi10ObjectWrapI9LoRaCommsE12StaticMethodIXadL_ZNS1_17GetLogInfoMessageERKNS_12CallbackInfoEEEEENS_23ClassPropertyDescriptorIS1_EEPKc24napi_property_attributesPv
FNDA:0,_ZN4Napi10ObjectWrapI9LoRaCommsE12StaticMethodIXadL_ZNS1_17GetLogInfoMessageERKNS_12CallbackInfoEEEEENS_23ClassPropertyDescriptorIS1_EEPKc24napi_property_attributesPv
FN:4146,_ZN4Napi10ObjectWrapI9LoRaCommsE12StaticMethodIXadL_ZNS1_18GetLogErrorMessageERKNS_12CallbackInfoEEEEENS_23ClassPropertyDescriptorIS1_EEPKc24napi_property_attributesPv
FNDA:0,_ZN4Napi10ObjectWrapI9LoRaCommsE12StaticMethodIXadL_ZNS1_18GetLogErrorMessageERKNS_12CallbackInfoEEEEENS_23ClassPropertyDescriptorIS1_EEPKc24napi_property_attributesPv
FN:4146,_ZN4Napi10ObjectWrapI9LoRaCommsE12StaticMethodIXadL_ZNS1_14SetLogWriteHWMERKNS_12CallbackInfoEEEEENS_23ClassPropertyDescriptorIS1_EEPKc24napi_property_attributesPv
FNDA:0,_ZN4Napi10ObjectWrapI9LoRaCommsE12StaticMethodIXadL_ZNS1_14SetLogWriteHWMERKNS_12CallbackInfoEEEEENS_23ClassPropertyDescriptorIS1_EEPKc24napi_property_attributesPv
FN:4146,_ZN4Napi10ObjectWrapI9LoRaCommsE12StaticMethodIXadL_ZNS1_18SetLogWriteTimeoutERKNS_12CallbackInfoEEEEENS_23ClassPropertyDescriptorIS1_EEPKc24napi_property_attributesPv
FNDA:0,_ZN4Napi10ObjectWrapI9LoRaCommsE12StaticMethodIXadL_ZNS1_18SetLogWriteTimeoutERKNS_12CallbackInfoEEEEENS_23ClassPropertyDescriptorIS1_EEPKc24napi_property_attributesPv
FN:4146,_ZN4Napi10ObjectWrapI9LoRaCommsE12StaticMethodIXadL_ZNS1_20SetLogMaxMessageSizeERKNS_12CallbackInfoEEEEENS_23ClassPropertyDescriptorIS1_EEPKc24napi_property_attributesPv
FNDA:0,_ZN4Napi10ObjectWrapI9LoRaCommsE12StaticMethodIXadL_ZNS1_20SetLogMaxMessageSizeERKNS_12CallbackInfoEEEEENS_23ClassPropertyDescriptorIS1_EEPKc24napi_property_attributesPv
FN:4174,_ZN4Napi10ObjectWrapI9LoRaCommsE12StaticMethodIXadL_ZNS1_20GetLogMaxMessageSizeERKNS_12CallbackInfoEEEEENS_23ClassPropertyDescriptorIS1_EEPKc24napi_property_attributesPv
FNDA:0,_ZN4Napi10ObjectWrapI9LoRaCommsE12StaticMethodIXadL_ZNS1_20GetLogMaxMessageSizeERKNS_12CallbackInfoEEEEENS_23ClassPropertyDescriptorIS1_EEPKc24napi_property_attributesPv
FN:4271,_ZN4Napi10ObjectWrapI9LoRaCommsE11StaticValueEPKcNS_5ValueE24napi_property_attributes
FNDA:0,_ZN4Napi10ObjectWrapI9LoRaCommsE11StaticValueEPKcNS_5ValueE24napi_property_attributes
FN:4291,_ZN4Napi10ObjectWrapI9LoRaCommsE8FinalizeENS_3EnvE
FNDA:0,_ZN4Napi10ObjectWrapI9LoRaCommsE8FinalizeENS_3EnvE
FN:4294,_ZN4Napi10ObjectWrapI9LoRaCommsE26ConstructorCallbackWrapperEP10napi_env__P20napi_callback_info__
FNDA:0,_ZN4Napi10ObjectWrapI9LoRaCommsE26ConstructorCallbackWrapperEP10napi_env__P20napi_callback_info__
FN:4307,_ZZN4Napi10ObjectWrapI9LoRaCommsE26ConstructorCallbackWrapperEP10napi_env__P20napi_callback_info__ENKUlvE_clEv
FNDA:0,_ZZN4Napi10ObjectWrapI9LoRaCommsE26ConstructorCallbackWrapperEP10napi_env__P20napi_callback_info__ENKUlvE_clEv
FN:4329,_ZN4Napi10ObjectWrapI9LoRaCommsE31StaticVoidMethodCallbackWrapperEP10napi_env__P20napi_callback_info__
FNDA:0,_ZN4Napi10ObjectWrapI9LoRaCommsE31StaticVoidMethodCallbackWrapperEP10napi_env__P20napi_callback_info__
FN:4332,_ZZN4Napi10ObjectWrapI9LoRaCommsE31StaticVoidMethodCallbackWrapperEP10napi_env__P20napi_callback_info__ENKUlvE_clEv
FNDA:0,_ZZN4Napi10ObjectWrapI9LoRaCommsE31StaticVoidMethodCallbackWrapperEP10napi_env__P20napi_callback_info__ENKUlvE_clEv
FN:4343,_ZN4Napi10ObjectWrapI9LoRaCommsE27StaticMethodCallbackWrapperEP10napi_env__P20napi_callback_info__
FNDA:0,_ZN4Napi10ObjectWrapI9LoRaCommsE27StaticMethodCallbackWrapperEP10napi_env__P20napi_callback_info__
FN:4346,_ZZN4Napi10ObjectWrapI9LoRaCommsE27StaticMethodCallbackWrapperEP10napi_env__P20napi_callback_info__ENKUlvE_clEv
FNDA:0,_ZZN4Napi10ObjectWrapI9LoRaCommsE27StaticMethodCallbackWrapperEP10napi_env__P20napi_callback_info__ENKUlvE_clEv
FN:4356,_ZN4Napi10ObjectWrapI9LoRaCommsE27StaticGetterCallbackWrapperEP10napi_env__P20napi_callback_info__
FNDA:0,_ZN4Napi10ObjectWrapI9LoRaCommsE27StaticGetterCallbackWrapperEP10napi_env__P20napi_callback_info__
FN:4359,_ZZN4Napi10ObjectWrapI9LoRaCommsE27StaticGetterCallbackWrapperEP10napi_env__P20napi_callback_info__ENKUlvE_clEv
FNDA:0,_ZZN4Napi10ObjectWrapI9LoRaCommsE27StaticGetterCallbackWrapperEP10napi_env__P20napi_callback_info__ENKUlvE_clEv
FN:4369,_ZN4Napi10ObjectWrapI9LoRaCommsE27StaticSetterCallbackWrapperEP10napi_env__P20napi_callback_info__
FNDA:0,_ZN4Napi10ObjectWrapI9LoRaCommsE27StaticSetterCallbackWrapperEP10napi_env__P20napi_callback_info__
FN:4372,_ZZN4Napi10ObjectWrapI9LoRaCommsE27StaticSetterCallbackWrapperEP10napi_env__P20napi_callback_info__ENKUlvE_clEv
FNDA:0,_ZZN4Napi10ObjectWrapI9LoRaCommsE27StaticSetterCallbackWrapperEP10napi_env__P20napi_callback_info__ENKUlvE_clEv
FN:4383,_ZN4Napi10ObjectWrapI9LoRaCommsE16FinalizeCallbackEP10napi_env__PvS5_
FNDA:0,_ZN4Napi10ObjectWrapI9LoRaCommsE16FinalizeCallbackEP10napi_env__PvS5_
FN:4409,_ZN4Napi11HandleScopeC2ENS_3EnvE
FNDA:0,_ZN4Napi11HandleScopeC2ENS_3EnvE
FN:4414,_ZN4Napi11HandleScopeD2Ev
FNDA:0,_ZN4Napi11HandleScopeD2Ev
FN:4437,_ZN4Napi20EscapableHandleScopeC2ENS_3EnvE
FNDA:0,_ZN4Napi20EscapableHandleScopeC2ENS_3EnvE
FN:4442,_ZN4Napi20EscapableHandleScopeD2Ev
FNDA:0,_ZN4Napi20EscapableHandleScopeD2Ev
FN:4453,_ZNK4Napi20EscapableHandleScope3EnvEv
FNDA:0,_ZNK4Napi20EscapableHandleScope3EnvEv
FN:4457,_ZN4Napi20EscapableHandleScope6EscapeEP12napi_value__
FNDA:0,_ZN4Napi20EscapableHandleScope6EscapeEP12napi_value__
FN:4481,_ZN4Napi13CallbackScopeD2Ev
FNDA:0,_ZN4Napi13CallbackScopeD2Ev
FN:4481,_ZN4Napi13CallbackScopeD0Ev
FNDA:0,_ZN4Napi13CallbackScopeD0Ev
FN:4518,_ZN4Napi12AsyncContextD0Ev
FNDA:0,_ZN4Napi12AsyncContextD0Ev
FN:4518,_ZN4Napi12AsyncContextD2Ev
FNDA:0,_ZN4Napi12AsyncContextD2Ev
FN:4552,_ZN4Napi11AsyncWorkerC2ERKNS_8FunctionE
FNDA:0,_ZN4Napi11AsyncWorkerC2ERKNS_8FunctionE
FN:4556,_ZN4Napi11AsyncWorkerC2ERKNS_8FunctionEPKc
FNDA:0,_ZN4Napi11AsyncWorkerC2ERKNS_8FunctionEPKc
FN:4561,_ZN4Napi11AsyncWorkerC2ERKNS_8FunctionEPKcRKNS_6ObjectE
FNDA:0,_ZN4Napi11AsyncWorkerC2ERKNS_8FunctionEPKcRKNS_6ObjectE
FN:4584,_ZN4Napi11AsyncWorkerC2ERKNS_6ObjectERKNS_8FunctionEPKcS3_
FNDA:0,_ZN4Napi11AsyncWorkerC2ERKNS_6ObjectERKNS_8FunctionEPKcS3_
FN:4628,_ZN4Napi11AsyncWorkerD2Ev
FNDA:0,_ZN4Napi11AsyncWorkerD2Ev
FN:4628,_ZN4Napi11AsyncWorkerD0Ev
FNDA:0,_ZN4Napi11AsyncWorkerD0Ev
FN:4635,_ZN4Napi11AsyncWorker7DestroyEv
FNDA:0,_ZN4Napi11AsyncWorker7DestroyEv
FN:4666,_ZNK4Napi11AsyncWorker3EnvEv
FNDA:0,_ZNK4Napi11AsyncWorker3EnvEv
FN:4670,_ZN4Napi11AsyncWorker5QueueEv
FNDA:0,_ZN4Napi11AsyncWorker5QueueEv
FN:4680,_ZN4Napi11AsyncWorker8ReceiverEv
FNDA:0,_ZN4Napi11AsyncWorker8ReceiverEv
FN:4684,_ZN4Napi11AsyncWorker8CallbackEv
FNDA:0,_ZN4Napi11AsyncWorker8CallbackEv
FN:4692,_ZN4Napi11AsyncWorker4OnOKEv
FNDA:0,_ZN4Napi11AsyncWorker4OnOKEv
FN:4698,_ZN4Napi11AsyncWorker7OnErrorERKNS_5ErrorE
FNDA:0,_ZN4Napi11AsyncWorker7OnErrorERKNS_5ErrorE
FN:4704,_ZN4Napi11AsyncWorker8SetErrorERKNSt7__cxx1112basic_stringIcSt11char_traitsIcESaIcEEE
FNDA:0,_ZN4Napi11AsyncWorker8SetErrorERKNSt7__cxx1112basic_stringIcSt11char_traitsIcESaIcEEE
FN:4708,_ZN4Napi11AsyncWorker9GetResultENS_3EnvE
FNDA:0,_ZN4Napi11AsyncWorker9GetResultENS_3EnvE
FN:4715,_ZN4Napi11AsyncWorker18OnAsyncWorkExecuteEP10napi_env__Pv
FNDA:0,_ZN4Napi11AsyncWorker18OnAsyncWorkExecuteEP10napi_env__Pv
FN:4723,_ZN4Napi11AsyncWorker9OnExecuteENS_3EnvE
FNDA:0,_ZN4Napi11AsyncWorker9OnExecuteENS_3EnvE
FN:4735,_ZN4Napi11AsyncWorker19OnAsyncWorkCompleteEP10napi_env__11napi_statusPv
FNDA:0,_ZN4Napi11AsyncWorker19OnAsyncWorkCompleteEP10napi_env__11napi_statusPv
FN:4741,_ZN4Napi11AsyncWorker14OnWorkCompleteENS_3EnvE11napi_status
FNDA:0,_ZN4Napi11AsyncWorker14OnWorkCompleteENS_3EnvE11napi_status
FN:4744,_ZZN4Napi11AsyncWorker14OnWorkCompleteENS_3EnvE11napi_statusENKUlvE_clEv
FNDA:0,_ZZN4Napi11AsyncWorker14OnWorkCompleteENS_3EnvE11napi_statusENKUlvE_clEv
DA:29,0
DA:35,0
DA:36,0
DA:64,0
DA:66,0
DA:29,0
DA:35,0
DA:36,0
DA:64,0
DA:66,0
DA:29,0
DA:35,0
DA:36,0
DA:64,0
DA:66,0
DA:29,0
DA:35,0
DA:36,0
DA:64,0
DA:66,0
DA:29,0
DA:35,0
DA:36,0
DA:64,0
DA:66,0
DA:29,0
DA:35,0
DA:36,0
DA:64,0
DA:66,0
DA:36,0
DA:36,0
DA:36,0
DA:36,0
DA:36,0
DA:36,0
DA:37,0
DA:72,0
DA:75,0
DA:76,0
DA:77,0
DA:78,0
DA:72,0
DA:75,0
DA:76,0
DA:77,0
DA:78,0
DA:72,0
DA:75,0
DA:76,0
DA:77,0
DA:78,0
DA:72,0
DA:75,0
DA:76,0
DA:77,0
DA:78,0
DA:72,0
DA:75,0
DA:76,0
DA:77,0
DA:78,0
DA:72,0
DA:75,0
DA:76,0
DA:77,0
DA:78,0
DA:72,0
DA:75,0
DA:76,0
DA:77,0
DA:78,0
DA:72,0
DA:75,0
DA:76,0
DA:77,0
DA:78,0
DA:72,0
DA:75,0
DA:76,0
DA:77,0
DA:78,0
DA:72,0
DA:75,0
DA:76,0
DA:77,0
DA:78,0
DA:72,0
DA:75,0
DA:76,0
DA:77,0
DA:78,0
DA:72,0
DA:75,0
DA:76,0
DA:77,0
DA:78,0
DA:72,0
DA:75,0
DA:76,0
DA:77,0
DA:78,0
DA:72,0
DA:75,0
DA:76,0
DA:77,0
DA:78,0
DA:72,0
DA:75,0
DA:76,0
DA:77,0
DA:78,0
DA:72,0
DA:75,0
DA:76,0
DA:77,0
DA:78,0
DA:72,0
DA:75,0
DA:76,0
DA:77,0
DA:78,0
DA:72,0
DA:75,0
DA:76,0
DA:77,0
DA:78,0
DA:72,0
DA:75,0
DA:76,0
DA:77,0
DA:78,0
DA:72,0
DA:75,0
DA:76,0
DA:77,0
DA:78,0
DA:72,0
DA:75,0
DA:76,0
DA:77,0
DA:78,0
DA:72,0
DA:75,0
DA:76,0
DA:77,0
DA:78,0
DA:72,0
DA:75,0
DA:76,0
DA:77,0
DA:78,0
DA:72,0
DA:75,0
DA:76,0
DA:77,0
DA:78,0
DA:72,0
DA:75,0
DA:76,0
DA:77,0
DA:78,0
DA:72,0
DA:75,0
DA:76,0
DA:77,0
DA:78,0
DA:72,0
DA:75,0
DA:76,0
DA:77,0
DA:78,0
DA:72,0
DA:75,0
DA:76,0
DA:77,0
DA:78,0
DA:142,0
DA:143,0
DA:147,0
DA:142,0
DA:143,0
DA:147,0
DA:142,0
DA:143,0
DA:147,0
DA:142,0
DA:143,0
DA:147,0
DA:142,0
DA:143,0
DA:147,0
DA:142,0
DA:143,0
DA:147,0
DA:142,0
DA:143,0
DA:147,0
DA:142,0
DA:143,0
DA:147,0
DA:142,0
DA:143,0
DA:147,0
DA:142,0
DA:143,0
DA:147,0
DA:142,0
DA:143,0
DA:147,0
DA:142,0
DA:143,0
DA:147,0
DA:142,0
DA:143,0
DA:147,0
DA:142,0
DA:143,0
DA:147,0
DA:142,0
DA:143,0
DA:147,0
DA:142,0
DA:143,0
DA:147,0
DA:143,0
DA:143,0
DA:143,0
DA:143,0
DA:143,0
DA:143,0
DA:143,0
DA:143,0
DA:143,0
DA:143,0
DA:143,0
DA:143,0
DA:143,0
DA:143,0
DA:143,0
DA:143,0
DA:144,0
DA:145,0
DA:146,0
DA:147,0
DA:152,0
DA:153,0
DA:154,0
DA:155,0
DA:156,0
DA:372,0
DA:375,0
DA:376,0
DA:377,0
DA:378,0
DA:451,0
DA:452,0
DA:454,0
DA:455,0
DA:465,0
DA:467,0
DA:468,0
DA:469,0
DA:472,0
DA:474,0
DA:475,0
DA:476,0
DA:479,0
DA:481,0
DA:482,0
DA:483,0
DA:581,0
DA:582,0
DA:584,0
DA:585,0
DA:603,0
DA:604,0
DA:607,0
DA:608,0
DA:744,0
DA:745,0
DA:744,0
DA:745,0
DA:744,0
DA:745,0
DA:744,0
DA:745,0
DA:744,0
DA:745,0
DA:808,0
DA:810,0
DA:811,0
DA:812,0
DA:818,0
DA:819,0
DA:821,0
DA:822,0
DA:825,0
DA:826,0
DA:829,0
DA:830,0
DA:841,0
DA:843,0
DA:844,0
DA:845,0
DA:848,0
DA:850,0
DA:851,0
DA:852,0
DA:855,0
DA:857,0
DA:858,0
DA:859,0
DA:974,0
DA:975,0
DA:1032,0
DA:1033,0
DA:1035,0
DA:1036,0
DA:1043,0
DA:1045,0
DA:1046,0
DA:1048,0
DA:1049,0
DA:1050,0
DA:1051,0
DA:1052,0
DA:1053,0
DA:1054,0
DA:1198,0
DA:1199,0
DA:1198,0
DA:1199,0
DA:1218,0
DA:1228,0
DA:1218,0
DA:1228,0
DA:1284,0
DA:1286,0
DA:1287,0
DA:1288,0
DA:1294,0
DA:1295,0
DA:1380,0
DA:1382,0
DA:1383,0
DA:1405,0
DA:1408,0
DA:1409,0
DA:1405,0
DA:1408,0
DA:1409,0
DA:1934,0
DA:1935,0
DA:1936,0
DA:2044,0
DA:2045,0
DA:2046,0
DA:2047,0
DA:2048,0
DA:2049,0
DA:2051,0
DA:2053,0
DA:2054,0
DA:2056,0
DA:2057,0
DA:2099,0
DA:2105,0
DA:2106,0
DA:2107,0
DA:2110,0
DA:2099,0
DA:2105,0
DA:2106,0
DA:2107,0
DA:2110,0
DA:2187,0
DA:2188,0
DA:2210,0
DA:2212,0
DA:2215,0
DA:2217,0
DA:2220,0
DA:2224,0
DA:2225,0
DA:2226,0
DA:2230,0
DA:2234,0
DA:2244,0
DA:2250,0
DA:2251,0
DA:2252,0
DA:2394,0
DA:2395,0
DA:2396,0
DA:2404,0
DA:2405,0
DA:2406,0
DA:2410,0
DA:2411,0
DA:2412,0
DA:2416,0
DA:2420,0
DA:2423,0
DA:2424,0
DA:2425,0
DA:2426,0
DA:2428,0
DA:2434,0
DA:2436,0
DA:2442,0
DA:2443,0
DA:2445,0
DA:2446,0
DA:2449,0
DA:2450,0
DA:2451,0
DA:2454,0
DA:2455,0
DA:2458,0
DA:2463,0
DA:2465,0
DA:2466,0
DA:2470,0
DA:2471,0
DA:2472,0
DA:2473,0
DA:2474,0
DA:2476,0
DA:2479,0
DA:2486,0
DA:2487,0
DA:2490,0
DA:2491,0
DA:2497,0
DA:2498,0
DA:2499,0
DA:2503,0
DA:2505,0
DA:2533,0
DA:2534,0
DA:2537,0
DA:2539,0
DA:2542,0
DA:2554,0
DA:2557,0
DA:2558,0
DA:2559,0
DA:2590,0
DA:2594,0
DA:2595,0
DA:2601,0
DA:2605,0
DA:2606,0
DA:2612,0
DA:2617,0
DA:2618,0
DA:2621,0
DA:2622,0
DA:2624,0
DA:2660,0
DA:2661,0
DA:2662,0
DA:2664,0
DA:2665,0
DA:2669,0
DA:2670,0
DA:2672,0
DA:2660,0
DA:2661,0
DA:2662,0
DA:2664,0
DA:2665,0
DA:2669,0
DA:2670,0
DA:2672,0
DA:2660,0
DA:2661,0
DA:2662,0
DA:2664,0
DA:2665,0
DA:2669,0
DA:2670,0
DA:2672,0
DA:2677,0
DA:2678,0
DA:2681,0
DA:2682,0
DA:2683,0
DA:2681,0
DA:2682,0
DA:2683,0
DA:2681,0
DA:2682,0
DA:2683,0
DA:2686,0
DA:2687,0
DA:2688,0
DA:2689,0
DA:2692,0
DA:2694,0
DA:2686,0
DA:2687,0
DA:2688,0
DA:2689,0
DA:2692,0
DA:2694,0
DA:2686,0
DA:2687,0
DA:2688,0
DA:2689,0
DA:2692,0
DA:2694,0
DA:2697,0
DA:2698,0
DA:2699,0
DA:2700,0
DA:2701,0
DA:2702,0
DA:2697,0
DA:2698,0
DA:2699,0
DA:2700,0
DA:2701,0
DA:2702,0
DA:2705,0
DA:2706,0
DA:2707,0
DA:2708,0
DA:2709,0
DA:2710,0
DA:2711,0
DA:2712,0
DA:2713,0
DA:2747,0
DA:2748,0
DA:2747,0
DA:2748,0
DA:2752,0
DA:2753,0
DA:2752,0
DA:2753,0
DA:2757,0
DA:2758,0
DA:2759,0
DA:2763,0
DA:2764,0
DA:2765,0
DA:2757,0
DA:2758,0
DA:2759,0
DA:2763,0
DA:2764,0
DA:2765,0
DA:2785,0
DA:2786,0
DA:2787,0
DA:2788,0
DA:2789,0
DA:2791,0
DA:2824,0
DA:2825,0
DA:2828,0
DA:2829,0
DA:2832,0
DA:2833,0
DA:2843,0
DA:2844,0
DA:2846,0
DA:2847,0
DA:2848,0
DA:2868,0
DA:2870,0
DA:2871,0
DA:2878,0
DA:2879,0
DA:2881,0
DA:2883,0
DA:2908,0
DA:2910,0
DA:2911,0
DA:2912,0
DA:3024,0
DA:3025,0
DA:3026,0
DA:3093,0
DA:3095,0
DA:3096,0
DA:3103,0
DA:3104,0
DA:3106,0
DA:3108,0
DA:3110,0
DA:3112,0
DA:3113,0
DA:3120,0
DA:3121,0
DA:3123,0
DA:3125,0
DA:3144,0
DA:3148,0
DA:3149,0
DA:3157,0
DA:3158,0
DA:3160,0
DA:3162,0
DA:3242,0
DA:3243,0
DA:3244,0
DA:3245,0
DA:3246,0
DA:3247,0
DA:3249,0
DA:3252,0
DA:3253,0
DA:3255,0
DA:3256,0
DA:3258,0
DA:3260,0
DA:3261,0
DA:3262,0
DA:3264,0
DA:3277,0
DA:3278,0
DA:3285,0
DA:3286,0
DA:3289,0
DA:3290,0
DA:3291,0
DA:3293,0
DA:3296,0
DA:3297,0
DA:3300,0
DA:3301,0
DA:3302,0
DA:3624,0
DA:3628,0
DA:3629,0
DA:3630,0
DA:3632,0
DA:3633,0
DA:3634,0
DA:3635,0
DA:3637,0
DA:3638,0
DA:3639,0
DA:3640,0
DA:3641,0
DA:3643,0
DA:3644,0
DA:3647,0
DA:3866,0
DA:3869,0
DA:3870,0
DA:3872,0
DA:3873,0
DA:3874,0
DA:3875,0
DA:3876,0
DA:3877,0
DA:3878,0
DA:3882,0
DA:3885,0
DA:3886,0
DA:3888,0
DA:3889,0
DA:3890,0
DA:3891,0
DA:3892,0
DA:3893,0
DA:3897,0
DA:3900,0
DA:3901,0
DA:3903,0
DA:3904,0
DA:3905,0
DA:3906,0
DA:3907,0
DA:3908,0
DA:3912,0
DA:3915,0
DA:3916,0
DA:3918,0
DA:3919,0
DA:3920,0
DA:3921,0
DA:3922,0
DA:3923,0
DA:3924,0
DA:3944,0
DA:3945,0
DA:3946,0
DA:3949,0
DA:3950,0
DA:3951,0
DA:3953,0
DA:3954,0
DA:3955,0
DA:3958,0
DA:3969,0
DA:3958,0
DA:3961,0
DA:3962,0
DA:3965,0
DA:3966,0
DA:3969,0
DA:3972,0
DA:3974,0
DA:3975,0
DA:3976,0
DA:3981,0
DA:3987,0
DA:3997,0
DA:3998,0
DA:3999,0
DA:4000,0
DA:4001,0
DA:4004,0
DA:4006,0
DA:4007,0
DA:4008,0
DA:4009,0
DA:4010,0
DA:4013,0
DA:4015,0
DA:4016,0
DA:4017,0
DA:4022,0
DA:4028,0
DA:4030,0
DA:4035,0
DA:4036,0
DA:4038,0
DA:4039,0
DA:4040,0
DA:4042,0
DA:4043,0
DA:4047,0
DA:4051,0
DA:4052,0
DA:4055,0
DA:4060,0
DA:4063,0
DA:4064,0
DA:4146,0
DA:4150,0
DA:4151,0
DA:4152,0
DA:4153,0
DA:4154,0
DA:4155,0
DA:4146,0
DA:4150,0
DA:4151,0
DA:4152,0
DA:4153,0
DA:4154,0
DA:4155,0
DA:4146,0
DA:4150,0
DA:4151,0
DA:4152,0
DA:4153,0
DA:4154,0
DA:4155,0
DA:4146,0
DA:4150,0
DA:4151,0
DA:4152,0
DA:4153,0
DA:4154,0
DA:4155,0
DA:4146,0
DA:4150,0
DA:4151,0
DA:4152,0
DA:4153,0
DA:4154,0
DA:4155,0
DA:4146,0
DA:4150,0
DA:4151,0
DA:4152,0
DA:4153,0
DA:4154,0
DA:4155,0
DA:4146,0
DA:4150,0
DA:4151,0
DA:4152,0
DA:4153,0
DA:4154,0
DA:4155,0
DA:4146,0
DA:4150,0
DA:4151,0
DA:4152,0
DA:4153,0
DA:4154,0
DA:4155,0
DA:4146,0
DA:4150,0
DA:4151,0
DA:4152,0
DA:4153,0
DA:4154,0
DA:4155,0
DA:4146,0
DA:4150,0
DA:4151,0
DA:4152,0
DA:4153,0
DA:4154,0
DA:4155,0
DA:4146,0
DA:4150,0
DA:4151,0
DA:4152,0
DA:4153,0
DA:4154,0
DA:4155,0
DA:4146,0
DA:4150,0
DA:4151,0
DA:4152,0
DA:4153,0
DA:4154,0
DA:4155,0
DA:4146,0
DA:4150,0
DA:4151,0
DA:4152,0
DA:4153,0
DA:4154,0
DA:4155,0
DA:4146,0
DA:4150,0
DA:4151,0
DA:4152,0
DA:4153,0
DA:4154,0
DA:4155,0
DA:4146,0
DA:4150,0
DA:4151,0
DA:4152,0
DA:4153,0
DA:4154,0
DA:4155,0
DA:4146,0
DA:4150,0
DA:4151,0
DA:4152,0
DA:4153,0
DA:4154,0
DA:4155,0
DA:4174,0
DA:4178,0
DA:4179,0
DA:4180,0
DA:4181,0
DA:4182,0
DA:4183,0
DA:4271,0
DA:4273,0
DA:4274,0
DA:4275,0
DA:4276,0
DA:4277,0
DA:4291,0
DA:4294,0
DA:4298,0
DA:4299,0
DA:4301,0
DA:4302,0
DA:4303,0
DA:4304,0
DA:4307,0
DA:4308,0
DA:4309,0
DA:4311,0
DA:4322,0
DA:4323,0
DA:4325,0
DA:4329,0
DA:4332,0
DA:4333,0
DA:4335,0
DA:4336,0
DA:4337,0
DA:4338,0
DA:4339,0
DA:4343,0
DA:4346,0
DA:4347,0
DA:4349,0
DA:4350,0
DA:4351,0
DA:4352,0
DA:4356,0
DA:4359,0
DA:4360,0
DA:4362,0
DA:4363,0
DA:4364,0
DA:4365,0
DA:4369,0
DA:4372,0
DA:4373,0
DA:4375,0
DA:4376,0
DA:4377,0
DA:4378,0
DA:4379,0
DA:4383,0
DA:4384,0
DA:4385,0
DA:4386,0
DA:4387,0
DA:4388,0
DA:4409,0
DA:4410,0
DA:4411,0
DA:4412,0
DA:4414,0
DA:4415,0
DA:4416,0
DA:4419,0
DA:4437,0
DA:4438,0
DA:4439,0
DA:4440,0
DA:4442,0
DA:4443,0
DA:4444,0
DA:4447,0
DA:4453,0
DA:4454,0
DA:4457,0
DA:4459,0
DA:4460,0
DA:4461,0
DA:4481,0
DA:4486,0
DA:4481,0
DA:4482,0
DA:4483,0
DA:4486,0
DA:4518,0
DA:4523,0
DA:4518,0
DA:4519,0
DA:4520,0
DA:4521,0
DA:4523,0
DA:4552,0
DA:4553,0
DA:4554,0
DA:4556,0
DA:4557,0
DA:4558,0
DA:4559,0
DA:4561,0
DA:4563,0
DA:4564,0
DA:4567,0
DA:4568,0
DA:4584,0
DA:4587,0
DA:4588,0
DA:4589,0
DA:4590,0
DA:4591,0
DA:4593,0
DA:4595,0
DA:4597,0
DA:4599,0
DA:4600,0
DA:4628,0
DA:4633,0
DA:4628,0
DA:4629,0
DA:4630,0
DA:4631,0
DA:4633,0
DA:4635,0
DA:4636,0
DA:4637,0
DA:4666,0
DA:4667,0
DA:4670,0
DA:4671,0
DA:4672,0
DA:4673,0
DA:4680,0
DA:4681,0
DA:4684,0
DA:4685,0
DA:4692,0
DA:4693,0
DA:4694,0
DA:4696,0
DA:4698,0
DA:4699,0
DA:4700,0
DA:4702,0
DA:4704,0
DA:4705,0
DA:4706,0
DA:4708,0
DA:4709,0
DA:4715,0
DA:4716,0
DA:4717,0
DA:4718,0
DA:4723,0
DA:4726,0
DA:4727,0
DA:4728,0
DA:4729,0
DA:4733,0
DA:4735,0
DA:4738,0
DA:4739,0
DA:4740,0
DA:4741,0
DA:4742,0
DA:4743,0
DA:4744,0
DA:4745,0
DA:4746,0
DA:4749,0
DA:4751,0
DA:4753,0
DA:4754,0
DA:4755,0
DA:4757,0
end_of_record
SF:/usr/include/c++/11/bits/stl_uninitialized.h
FN:595,_ZNSt27__uninitialized_default_n_1ILb1EE18__uninit_default_nIP24napi_property_descriptormEET_S4_T0_
FNDA:0,_ZNSt27__uninitialized_default_n_1ILb1EE18__uninit_default_nIP24napi_property_descriptormEET_S4_T0_
FN:630,_ZSt25__uninitialized_default_nIP24napi_property_descriptormET_S2_T0_
FNDA:0,_ZSt25__uninitialized_default_nIP24napi_property_descriptormET_S2_T0_
FN:702,_ZSt27__uninitialized_default_n_aIP24napi_property_descriptormS0_ET_S2_T0_RSaIT1_E
FNDA:0,_ZSt27__uninitialized_default_n_aIP24napi_property_descriptormS0_ET_S2_T0_RSaIT1_E
DA:595,0
DA:597,0
DA:600,0
DA:601,0
DA:602,0
DA:603,0
DA:605,0
DA:630,0
DA:635,0
DA:640,0
DA:702,0
DA:704,0
end_of_record
SF:/usr/include/c++/11/initializer_list
FN:71,_ZNKSt16initializer_listIN4Napi23ClassPropertyDescriptorI9LoRaCommsEEE4sizeEv
FNDA:0,_ZNKSt16initializer_listIN4Napi23ClassPropertyDescriptorI9LoRaCommsEEE4sizeEv
FN:71,_ZNKSt16initializer_listIP12napi_value__E4sizeEv
FNDA:0,_ZNKSt16initializer_listIP12napi_value__E4sizeEv
FN:75,_ZNKSt16initializer_listIN4Napi23ClassPropertyDescriptorI9LoRaCommsEEE5beginEv
FNDA:0,_ZNKSt16initializer_listIN4Napi23ClassPropertyDescriptorI9LoRaCommsEEE5beginEv
FN:75,_ZNKSt16initializer_listIP12napi_value__E5beginEv
FNDA:0,_ZNKSt16initializer_listIP12napi_value__E5beginEv
DA:71,0
DA:71,0
DA:75,0
DA:75,0
end_of_record
SF:/usr/include/c++/11/bits/stl_vector.h
FN:97,_ZNSt12_Vector_baseI24napi_property_descriptorSaIS0_EE17_Vector_impl_dataC2Ev
FNDA:0,_ZNSt12_Vector_baseI24napi_property_descriptorSaIS0_EE17_Vector_impl_dataC2Ev
FN:97,_ZNSt12_Vector_baseIP12napi_value__SaIS1_EE17_Vector_impl_dataC2Ev
FNDA:0,_ZNSt12_Vector_baseIP12napi_value__SaIS1_EE17_Vector_impl_dataC2Ev
FN:131,_ZNSt12_Vector_baseIP12napi_value__SaIS1_EE12_Vector_implC2Ev
FNDA:0,_ZNSt12_Vector_baseIP12napi_value__SaIS1_EE12_Vector_implC2Ev
FN:136,_ZNSt12_Vector_baseI24napi_property_descriptorSaIS0_EE12_Vector_implC2ERKS1_
FNDA:0,_ZNSt12_Vector_baseI24napi_property_descriptorSaIS0_EE12_Vector_implC2ERKS1_
FN:276,_ZNSt12_Vector_baseIP12napi_value__SaIS1_EE19_M_get_Tp_allocatorEv
FNDA:0,_ZNSt12_Vector_baseIP12napi_value__SaIS1_EE19_M_get_Tp_allocatorEv
FN:276,_ZNSt12_Vector_baseI24napi_property_descriptorSaIS0_EE19_M_get_Tp_allocatorEv
FNDA:0,_ZNSt12_Vector_baseI24napi_property_descriptorSaIS0_EE19_M_get_Tp_allocatorEv
FN:288,_ZNSt12_Vector_baseIP12napi_value__SaIS1_EEC2Ev
FNDA:0,_ZNSt12_Vector_baseIP12napi_value__SaIS1_EEC2Ev
FN:303,_ZNSt12_Vector_baseI24napi_property_descriptorSaIS0_EEC2EmRKS1_
FNDA:0,_ZNSt12_Vector_baseI24napi_property_descriptorSaIS0_EEC2EmRKS1_
FN:333,_ZNSt12_Vector_baseI24napi_property_descriptorSaIS0_EED2Ev
FNDA:0,_ZNSt12_Vector_baseI24napi_property_descriptorSaIS0_EED2Ev
FN:333,_ZNSt12_Vector_baseIP12napi_value__SaIS1_EED2Ev
FNDA:0,_ZNSt12_Vector_baseIP12napi_value__SaIS1_EED2Ev
FN:343,_ZNSt12_Vector_baseI24napi_property_descriptorSaIS0_EE11_M_allocateEm
FNDA:0,_ZNSt12_Vector_baseI24napi_property_descriptorSaIS0_EE11_M_allocateEm
FN:350,_ZNSt12_Vector_baseIP12napi_value__SaIS1_EE13_M_deallocateEPS1_m
FNDA:0,_ZNSt12_Vector_baseIP12napi_value__SaIS1_EE13_M_deallocateEPS1_m
FN:350,_ZNSt12_Vector_baseI24napi_property_descriptorSaIS0_EE13_M_deallocateEPS0_m
FNDA:0,_ZNSt12_Vector_baseI24napi_property_descriptorSaIS0_EE13_M_deallocateEPS0_m
FN:359,_ZNSt12_Vector_baseI24napi_property_descriptorSaIS0_EE17_M_create_storageEm
FNDA:0,_ZNSt12_Vector_baseI24napi_property_descriptorSaIS0_EE17_M_create_storageEm
FN:487,_ZNSt6vectorIP12napi_value__SaIS1_EEC2Ev
FNDA:0,_ZNSt6vectorIP12napi_value__SaIS1_EEC2Ev
FN:510,_ZNSt6vectorI24napi_property_descriptorSaIS0_EEC2EmRKS1_
FNDA:0,_ZNSt6vectorI24napi_property_descriptorSaIS0_EEC2EmRKS1_
FN:678,_ZNSt6vectorI24napi_property_descriptorSaIS0_EED2Ev
FNDA:0,_ZNSt6vectorI24napi_property_descriptorSaIS0_EED2Ev
FN:678,_ZNSt6vectorIP12napi_value__SaIS1_EED2Ev
FNDA:0,_ZNSt6vectorIP12napi_value__SaIS1_EED2Ev
FN:918,_ZNKSt6vectorIP12napi_value__SaIS1_EE4sizeEv
FNDA:0,_ZNKSt6vectorIP12napi_value__SaIS1_EE4sizeEv
FN:1043,_ZNSt6vectorI24napi_property_descriptorSaIS0_EEixEm
FNDA:0,_ZNSt6vectorI24napi_property_descriptorSaIS0_EEixEm
FN:1168,_ZNSt6vectorI24napi_property_descriptorSaIS0_EE4dataEv
FNDA:0,_ZNSt6vectorI24napi_property_descriptorSaIS0_EE4dataEv
FN:1172,_ZNKSt6vectorIP12napi_value__SaIS1_EE4dataEv
FNDA:0,_ZNKSt6vectorIP12napi_value__SaIS1_EE4dataEv
FN:1603,_ZNSt6vectorI24napi_property_descriptorSaIS0_EE21_M_default_initializeEm
FNDA:0,_ZNSt6vectorI24napi_property_descriptorSaIS0_EE21_M_default_initializeEm
FN:1767,_ZNSt6vectorI24napi_property_descriptorSaIS0_EE17_S_check_init_lenEmRKS1_
FNDA:0,_ZNSt6vectorI24napi_property_descriptorSaIS0_EE17_S_check_init_lenEmRKS1_
FN:1776,_ZNSt6vectorI24napi_property_descriptorSaIS0_EE11_S_max_sizeERKS1_
FNDA:0,_ZNSt6vectorI24napi_property_descriptorSaIS0_EE11_S_max_sizeERKS1_
FN:1844,_ZNKSt6vectorIP12napi_value__SaIS1_EE11_M_data_ptrIS1_EEPT_S6_
FNDA:0,_ZNKSt6vectorIP12napi_value__SaIS1_EE11_M_data_ptrIS1_EEPT_S6_
FN:1844,_ZNKSt6vectorI24napi_property_descriptorSaIS0_EE11_M_data_ptrIS0_EEPT_S5_
FNDA:0,_ZNKSt6vectorI24napi_property_descriptorSaIS0_EE11_M_data_ptrIS0_EEPT_S5_
DA:97,0
DA:98,0
DA:99,0
DA:97,0
DA:98,0
DA:99,0
DA:131,0
DA:133,0
DA:134,0
DA:136,0
DA:137,0
DA:138,0
DA:276,0
DA:277,0
DA:276,0
DA:277,0
DA:288,0
DA:303,0
DA:304,0
DA:305,0
DA:333,0
DA:335,0
DA:336,0
DA:337,0
DA:333,0
DA:335,0
DA:336,0
DA:337,0
DA:343,0
DA:346,0
DA:350,0
DA:353,0
DA:354,0
DA:355,0
DA:350,0
DA:353,0
DA:354,0
DA:355,0
DA:359,0
DA:361,0
DA:362,0
DA:363,0
DA:364,0
DA:487,0
DA:510,0
DA:511,0
DA:512,0
DA:678,0
DA:680,0
DA:681,0
DA:683,0
DA:678,0
DA:680,0
DA:681,0
DA:683,0
DA:918,0
DA:919,0
DA:1043,0
DA:1046,0
DA:1168,0
DA:1169,0
DA:1172,0
DA:1173,0
DA:1603,0
DA:1605,0
DA:1606,0
DA:1607,0
DA:1608,0
DA:1767,0
DA:1769,0
DA:1770,0
DA:1772,0
DA:1776,0
DA:1781,0
DA:1783,0
DA:1784,0
DA:1844,0
DA:1845,0
DA:1844,0
DA:1845,0
end_of_record
SF:/usr/include/c++/11/bits/char_traits.h
FN:365,_ZNSt11char_traitsIcE6lengthEPKc
FNDA:0,_ZNSt11char_traitsIcE6lengthEPKc
DA:365,0
DA:371,0
end_of_record
SF:/usr/include/c++/11/bits/stl_iterator_base_types.h
FN:238,_ZSt19__iterator_categoryIP24napi_property_descriptorENSt15iterator_traitsIT_E17iterator_categoryERKS3_
FNDA:0,_ZSt19__iterator_categoryIP24napi_property_descriptorENSt15iterator_traitsIT_E17iterator_categoryERKS3_
FN:238,_ZSt19__iterator_categoryIPKcENSt15iterator_traitsIT_E17iterator_categoryERKS3_
FNDA:0,_ZSt19__iterator_categoryIPKcENSt15iterator_traitsIT_E17iterator_categoryERKS3_
DA:238,0
DA:239,0
DA:238,0
DA:239,0
end_of_record
SF:/usr/include/c++/11/bits/alloc_traits.h
FN:459,_ZNSt16allocator_traitsISaI24napi_property_descriptorEE8allocateERS1_m
FNDA:0,_ZNSt16allocator_traitsISaI24napi_property_descriptorEE8allocateERS1_m
FN:491,_ZNSt16allocator_traitsISaI24napi_property_descriptorEE10deallocateERS1_PS0_m
FNDA:0,_ZNSt16allocator_traitsISaI24napi_property_descriptorEE10deallocateERS1_PS0_m
FN:491,_ZNSt16allocator_traitsISaIP12napi_value__EE10deallocateERS2_PS1_m
FNDA:0,_ZNSt16allocator_traitsISaIP12napi_value__EE10deallocateERS2_PS1_m
FN:543,_ZNSt16allocator_traitsISaI24napi_property_descriptorEE8max_sizeERKS1_
FNDA:0,_ZNSt16allocator_traitsISaI24napi_property_descriptorEE8max_sizeERKS1_
FN:743,_ZSt8_DestroyIP24napi_property_descriptorS0_EvT_S2_RSaIT0_E
FNDA:0,_ZSt8_DestroyIP24napi_property_descriptorS0_EvT_S2_RSaIT0_E
FN:743,_ZSt8_DestroyIPP12napi_value__S1_EvT_S3_RSaIT0_E
FNDA:0,_ZSt8_DestroyIPP12napi_value__S1_EvT_S3_RSaIT0_E
DA:459,0
DA:460,0
DA:491,0
DA:492,0
DA:491,0
DA:492,0
DA:543,0
DA:546,0
DA:743,0
DA:746,0
DA:747,0
DA:743,0
DA:746,0
DA:747,0
end_of_record
SF:/usr/include/c++/11/bits/basic_string.h
FN:6658,_ZNSt7__cxx119to_stringEi
FNDA:0,_ZNSt7__cxx119to_stringEi
DA:6658,0
DA:6660,0
DA:6661,0
DA:6662,0
DA:6663,0
DA:6664,0
DA:6665,0
DA:6666,0
end_of_record
SF:/usr/include/c++/11/bits/charconv.h
FN:47,_ZNSt8__detail14__to_chars_lenIjEEjT_i
FNDA:0,_ZNSt8__detail14__to_chars_lenIjEEjT_i
FN:72,_ZNSt8__detail18__to_chars_10_implIjEEvPcjT_
FNDA:0,_ZNSt8__detail18__to_chars_10_implIjEEvPcjT_
DA:47,0
DA:52,0
DA:53,0
DA:54,0
DA:55,0
DA:58,0
DA:59,0
DA:60,0
DA:61,0
DA:62,0
DA:63,0
DA:72,0
DA:83,0
DA:84,0
DA:86,0
DA:87,0
DA:88,0
DA:89,0
DA:90,0
DA:92,0
DA:94,0
DA:95,0
DA:96,0
DA:99,0
DA:100,0
end_of_record
SF:/home/david/node-lora-comms/node_modules/node-addon-api/napi.h
FN:1082,_ZN4Napi10TypedArray30TypedArrayTypeForPrimitiveTypeIhEE20napi_typedarray_typev
FNDA:0,_ZN4Napi10TypedArray30TypedArrayTypeForPrimitiveTypeIhEE20napi_typedarray_typev
FN:1897,_ZN4Napi23ClassPropertyDescriptorI9LoRaCommsEC2E24napi_property_descriptor
FNDA:0,_ZN4Napi23ClassPropertyDescriptorI9LoRaCommsEC2E24napi_property_descriptor
DA:1082,0
DA:1095,0
DA:1897,0
end_of_record
SF:/usr/include/c++/11/bits/basic_string.tcc
FN:206,_ZNSt7__cxx1112basic_stringIcSt11char_traitsIcESaIcEE12_M_constructIPKcEEvT_S8_St20forward_iterator_tag
FNDA:0,_ZNSt7__cxx1112basic_stringIcSt11char_traitsIcESaIcEE12_M_constructIPKcEEvT_S8_St20forward_iterator_tag
DA:206,0
DA:211,0
DA:212,0
DA:215,0
DA:217,0
DA:219,0
DA:220,0
DA:225,0
DA:226,0
DA:228,0
DA:229,0
DA:232,0
DA:233,0
end_of_record
SF:/usr/include/c++/11/new
FN:174,_ZnwmPv
FNDA:0,_ZnwmPv
DA:174,0
DA:175,0
end_of_record
SF:/usr/include/c++/11/bits/move.h
FN:49,_ZSt11__addressofI24napi_property_descriptorEPT_RS1_
FNDA:0,_ZSt11__addressofI24napi_property_descriptorEPT_RS1_
FN:104,_ZSt4moveIRSaIcEEONSt16remove_referenceIT_E4typeEOS3_
FNDA:0,_ZSt4moveIRSaIcEEONSt16remove_referenceIT_E4typeEOS3_
FN:104,_ZSt4moveIRN4Napi9ReferenceINS0_8FunctionEEEEONSt16remove_referenceIT_E4typeEOS6_
FNDA:0,_ZSt4moveIRN4Napi9ReferenceINS0_8FunctionEEEEONSt16remove_referenceIT_E4typeEOS6_
FN:104,_ZSt4moveIRN4Napi9ReferenceINS0_6ObjectEEEEONSt16remove_referenceIT_E4typeEOS6_
FNDA:0,_ZSt4moveIRN4Napi9ReferenceINS0_6ObjectEEEEONSt16remove_referenceIT_E4typeEOS6_
DA:49,0
DA:50,0
DA:104,0
DA:105,0
DA:104,0
DA:105,0
DA:104,0
DA:105,0
end_of_record
TN:
SF:/usr/include/c++/11/chrono
FN:211,_ZNSt6chrono20__duration_cast_implINS_8durationIlSt5ratioILl1ELl1000000000EEEES2_ILl1ELl1EElLb1ELb1EE6__castIlS3_EES4_RKNS1_IT_T0_EE
FNDA:0,_ZNSt6chrono20__duration_cast_implINS_8durationIlSt5ratioILl1ELl1000000000EEEES2_ILl1ELl1EElLb1ELb1EE6__castIlS3_EES4_RKNS1_IT_T0_EE
FN:223,_ZNSt6chrono20__duration_cast_implINS_8durationIlSt5ratioILl1ELl1EEEES2_ILl1ELl1000000000EElLb1ELb0EE6__castIlS5_EES4_RKNS1_IT_T0_EE
FNDA:0,_ZNSt6chrono20__duration_cast_implINS_8durationIlSt5ratioILl1ELl1EEEES2_ILl1ELl1000000000EElLb1ELb0EE6__castIlS5_EES4_RKNS1_IT_T0_EE
FN:236,_ZNSt6chrono20__duration_cast_implINS_8durationIlSt5ratioILl1ELl1000000000EEEES2_ILl1000ELl1EElLb0ELb1EE6__castIlS2_ILl1ELl1000000EEEES4_RKNS1_IT_T0_EE
FNDA:0,_ZNSt6chrono20__duration_cast_implINS_8durationIlSt5ratioILl1ELl1000000000EEEES2_ILl1000ELl1EElLb0ELb1EE6__castIlS2_ILl1ELl1000000EEEES4_RKNS1_IT_T0_EE
FN:236,_ZNSt6chrono20__duration_cast_implINS_8durationIlSt5ratioILl1ELl1000000EEEES2_ILl1000000ELl1EElLb0ELb1EE6__castIlS2_ILl1ELl1EEEES4_RKNS1_IT_T0_EE
FNDA:0,_ZNSt6chrono20__duration_cast_implINS_8durationIlSt5ratioILl1ELl1000000EEEES2_ILl1000000ELl1EElLb0ELb1EE6__castIlS2_ILl1ELl1EEEES4_RKNS1_IT_T0_EE
FN:236,_ZNSt6chrono20__duration_cast_implINS_8durationIlSt5ratioILl1ELl1000000000EEEES2_ILl1000000000ELl1EElLb0ELb1EE6__castIlS2_ILl1ELl1EEEES4_RKNS1_IT_T0_EE
FNDA:0,_ZNSt6chrono20__duration_cast_implINS_8durationIlSt5ratioILl1ELl1000000000EEEES2_ILl1000000000ELl1EElLb0ELb1EE6__castIlS2_ILl1ELl1EEEES4_RKNS1_IT_T0_EE
FN:267,_ZNSt6chrono13duration_castINS_8durationIlSt5ratioILl1ELl1EEEElS2_ILl1ELl1000000000EEEENSt9enable_ifIXsrNS_13__is_durationIT_EE5valueES8_E4typeERKNS1_IT0_T1_EE
FNDA:0,_ZNSt6chrono13duration_castINS_8durationIlSt5ratioILl1ELl1EEEElS2_ILl1ELl1000000000EEEENSt9enable_ifIXsrNS_13__is_durationIT_EE5valueES8_E4typeERKNS1_IT0_T1_EE
FN:267,_ZNSt6chrono13duration_castINS_8durationIlSt5ratioILl1ELl1000000000EEEElS3_EENSt9enable_ifIXsrNS_13__is_durationIT_EE5valueES7_E4typeERKNS1_IT0_T1_EE
FNDA:0,_ZNSt6chrono13duration_castINS_8durationIlSt5ratioILl1ELl1000000000EEEElS3_EENSt9enable_ifIXsrNS_13__is_durationIT_EE5valueES7_E4typeERKNS1_IT0_T1_EE
FN:267,_ZNSt6chrono13duration_castINS_8durationIlSt5ratioILl1ELl1000000EEEElS2_ILl1ELl1EEEENSt9enable_ifIXsrNS_13__is_durationIT_EE5valueES8_E4typeERKNS1_IT0_T1_EE
FNDA:0,_ZNSt6chrono13duration_castINS_8durationIlSt5ratioILl1ELl1000000EEEElS2_ILl1ELl1EEEENSt9enable_ifIXsrNS_13__is_durationIT_EE5valueES8_E4typeERKNS1_IT0_T1_EE
FN:267,_ZNSt6chrono13duration_castINS_8durationIlSt5ratioILl1ELl1000000000EEEElS2_ILl1ELl1EEEENSt9enable_ifIXsrNS_13__is_durationIT_EE5valueES8_E4typeERKNS1_IT0_T1_EE
FNDA:0,_ZNSt6chrono13duration_castINS_8durationIlSt5ratioILl1ELl1000000000EEEElS2_ILl1ELl1EEEENSt9enable_ifIXsrNS_13__is_durationIT_EE5valueES8_E4typeERKNS1_IT0_T1_EE
FN:267,_ZNSt6chrono13duration_castINS_8durationIlSt5ratioILl1ELl1000000000EEEElS2_ILl1ELl1000000EEEENSt9enable_ifIXsrNS_13__is_durationIT_EE5valueES8_E4typeERKNS1_IT0_T1_EE
FNDA:0,_ZNSt6chrono13duration_castINS_8durationIlSt5ratioILl1ELl1000000000EEEElS2_ILl1ELl1000000EEEENSt9enable_ifIXsrNS_13__is_durationIT_EE5valueES8_E4typeERKNS1_IT0_T1_EE
FN:412,_ZNSt6chrono8__detail11__ceil_implINS_8durationIlSt5ratioILl1ELl1000000000EEEENS2_IlS3_ILl1ELl1000000EEEEEET_RKS8_RKT0_
FNDA:0,_ZNSt6chrono8__detail11__ceil_implINS_8durationIlSt5ratioILl1ELl1000000000EEEENS2_IlS3_ILl1ELl1000000EEEEEET_RKS8_RKT0_
FN:420,_ZNSt6chrono8__detail4ceilINS_8durationIlSt5ratioILl1ELl1000000000EEEElS3_ILl1ELl1000000EEEET_RKNS2_IT0_T1_EE
FNDA:0,_ZNSt6chrono8__detail4ceilINS_8durationIlSt5ratioILl1ELl1000000000EEEElS3_ILl1ELl1000000EEEET_RKNS2_IT0_T1_EE
FN:432,_ZNSt6chrono15duration_valuesIlE4zeroEv
FNDA:0,_ZNSt6chrono15duration_valuesIlE4zeroEv
FN:521,_ZNSt6chrono8durationIlSt5ratioILl1ELl1000000EEEC1IlvEERKT_
FNDA:0,_ZNSt6chrono8durationIlSt5ratioILl1ELl1000000EEEC1IlvEERKT_
FN:521,_ZNSt6chrono8durationIlSt5ratioILl1ELl1000000000EEEC2IivEERKT_
FNDA:0,_ZNSt6chrono8durationIlSt5ratioILl1ELl1000000000EEEC2IivEERKT_
FN:521,_ZNSt6chrono8durationIlSt5ratioILl1ELl1000000000EEEC1IlvEERKT_
FNDA:0,_ZNSt6chrono8durationIlSt5ratioILl1ELl1000000000EEEC1IlvEERKT_
FN:521,_ZNSt6chrono8durationIlSt5ratioILl1ELl1EEEC2IlvEERKT_
FNDA:0,_ZNSt6chrono8durationIlSt5ratioILl1ELl1EEEC2IlvEERKT_
FN:529,_ZNSt6chrono8durationIlSt5ratioILl1ELl1000000000EEEC2IlS1_ILl1ELl1EEvEERKNS0_IT_T0_EE
FNDA:0,_ZNSt6chrono8durationIlSt5ratioILl1ELl1000000000EEEC2IlS1_ILl1ELl1EEvEERKNS0_IT_T0_EE
FN:529,_ZNSt6chrono8durationIlSt5ratioILl1ELl1000000EEEC2IlS1_ILl1ELl1EEvEERKNS0_IT_T0_EE
FNDA:0,_ZNSt6chrono8durationIlSt5ratioILl1ELl1000000EEEC2IlS1_ILl1ELl1EEvEERKNS0_IT_T0_EE
FN:529,_ZNSt6chrono8durationIlSt5ratioILl1ELl1000000000EEEC2IlS1_ILl1ELl1000000EEvEERKNS0_IT_T0_EE
FNDA:0,_ZNSt6chrono8durationIlSt5ratioILl1ELl1000000000EEEC2IlS1_ILl1ELl1000000EEvEERKNS0_IT_T0_EE
FN:537,_ZNKSt6chrono8durationIlSt5ratioILl1ELl1000000EEE5countEv
FNDA:0,_ZNKSt6chrono8durationIlSt5ratioILl1ELl1000000EEE5countEv
FN:537,_ZNKSt6chrono8durationIlSt5ratioILl1ELl1000000000EEE5countEv
FNDA:0,_ZNKSt6chrono8durationIlSt5ratioILl1ELl1000000000EEE5countEv
FN:537,_ZNKSt6chrono8durationIlSt5ratioILl1ELl1EEE5countEv
FNDA:0,_ZNKSt6chrono8durationIlSt5ratioILl1ELl1EEE5countEv
FN:547,_ZNKSt6chrono8durationIlSt5ratioILl1ELl1000000EEEngEv
FNDA:0,_ZNKSt6chrono8durationIlSt5ratioILl1ELl1000000EEEngEv
FN:623,_ZNSt6chrono8durationIlSt5ratioILl1ELl1000000EEE4zeroEv
FNDA:0,_ZNSt6chrono8durationIlSt5ratioILl1ELl1000000EEE4zeroEv
FN:646,_ZNSt6chronoplIlSt5ratioILl1ELl1000000000EElS2_EENSt11common_typeIJNS_8durationIT_T0_EENS4_IT1_T2_EEEE4typeERKS7_RKSA_
FNDA:0,_ZNSt6chronoplIlSt5ratioILl1ELl1000000000EElS2_EENSt11common_typeIJNS_8durationIT_T0_EENS4_IT1_T2_EEEE4typeERKS7_RKSA_
FN:646,_ZNSt6chronoplIlSt5ratioILl1ELl1EElS1_ILl1ELl1000000EEEENSt11common_typeIJNS_8durationIT_T0_EENS5_IT1_T2_EEEE4typeERKS8_RKSB_
FNDA:0,_ZNSt6chronoplIlSt5ratioILl1ELl1EElS1_ILl1ELl1000000EEEENSt11common_typeIJNS_8durationIT_T0_EENS5_IT1_T2_EEEE4typeERKS8_RKSB_
FN:660,_ZNSt6chronomiIlSt5ratioILl1ELl1000000000EElS1_ILl1ELl1EEEENSt11common_typeIJNS_8durationIT_T0_EENS5_IT1_T2_EEEE4typeERKS8_RKSB_
FNDA:0,_ZNSt6chronomiIlSt5ratioILl1ELl1000000000EElS1_ILl1ELl1EEEENSt11common_typeIJNS_8durationIT_T0_EENS5_IT1_T2_EEEE4typeERKS8_RKSB_
FN:691,_ZNSt6chronomlIlSt5ratioILl1ELl1000000EElEENS_8durationINSt9enable_ifIXsrSt14is_convertibleIRKT1_NSt11common_typeIJT_S6_EE4typeEE5valueESC_E4typeET0_EERKNS3_ISA_SG_EES8_
FNDA:0,_ZNSt6chronomlIlSt5ratioILl1ELl1000000EElEENS_8durationINSt9enable_ifIXsrSt14is_convertibleIRKT1_NSt11common_typeIJT_S6_EE4typeEE5valueESC_E4typeET0_EERKNS3_ISA_SG_EES8_
FN:691,_ZNSt6chronomlIlSt5ratioILl1ELl1EElEENS_8durationINSt9enable_ifIXsrSt14is_convertibleIRKT1_NSt11common_typeIJT_S6_EE4typeEE5valueESC_E4typeET0_EERKNS3_ISA_SG_EES8_
FNDA:0,_ZNSt6chronomlIlSt5ratioILl1ELl1EElEENS_8durationINSt9enable_ifIXsrSt14is_convertibleIRKT1_NSt11common_typeIJT_S6_EE4typeEE5valueESC_E4typeET0_EERKNS3_ISA_SG_EES8_
FN:700,_ZNSt6chronomlIllSt5ratioILl1ELl1EEEENS_8durationINSt9enable_ifIXsrSt14is_convertibleIRKT_NSt11common_typeIJT0_S6_EE4typeEE5valueESC_E4typeET1_EES8_RKNS3_ISA_SG_EE
FNDA:0,_ZNSt6chronomlIllSt5ratioILl1ELl1EEEENS_8durationINSt9enable_ifIXsrSt14is_convertibleIRKT_NSt11common_typeIJT0_S6_EE4typeEE5valueESC_E4typeET1_EES8_RKNS3_ISA_SG_EE
FN:700,_ZNSt6chronomlIllSt5ratioILl1ELl1000000EEEENS_8durationINSt9enable_ifIXsrSt14is_convertibleIRKT_NSt11common_typeIJT0_S6_EE4typeEE5valueESC_E4typeET1_EES8_RKNS3_ISA_SG_EE
FNDA:0,_ZNSt6chronomlIllSt5ratioILl1ELl1000000EEEENS_8durationINSt9enable_ifIXsrSt14is_convertibleIRKT_NSt11common_typeIJT0_S6_EE4typeEE5valueESC_E4typeET1_EES8_RKNS3_ISA_SG_EE
FN:760,_ZNSt6chronoeqIlSt5ratioILl1ELl1000000EElS2_EEbRKNS_8durationIT_T0_EERKNS3_IT1_T2_EE
FNDA:0,_ZNSt6chronoeqIlSt5ratioILl1ELl1000000EElS2_EEbRKNS_8durationIT_T0_EERKNS3_IT1_T2_EE
FN:772,_ZNSt6chronoltIlSt5ratioILl1ELl1000000000EElS1_ILl1ELl1000000EEEEbRKNS_8durationIT_T0_EERKNS4_IT1_T2_EE
FNDA:0,_ZNSt6chronoltIlSt5ratioILl1ELl1000000000EElS1_ILl1ELl1000000EEEEbRKNS_8durationIT_T0_EERKNS4_IT1_T2_EE
FN:772,_ZNSt6chronoltIlSt5ratioILl1ELl1000000EElS2_EEbRKNS_8durationIT_T0_EERKNS3_IT1_T2_EE
FNDA:0,_ZNSt6chronoltIlSt5ratioILl1ELl1000000EElS2_EEbRKNS_8durationIT_T0_EERKNS3_IT1_T2_EE
FN:772,_ZNSt6chronoltIlSt5ratioILl1ELl1000000000EElS2_EEbRKNS_8durationIT_T0_EERKNS3_IT1_T2_EE
FNDA:0,_ZNSt6chronoltIlSt5ratioILl1ELl1000000000EElS2_EEbRKNS_8durationIT_T0_EERKNS3_IT1_T2_EE
FN:885,_ZNSt6chrono10time_pointINS_3_V212steady_clockENS_8durationIlSt5ratioILl1ELl1000000000EEEEEC2ERKS6_
FNDA:0,_ZNSt6chrono10time_pointINS_3_V212steady_clockENS_8durationIlSt5ratioILl1ELl1000000000EEEEEC2ERKS6_
FN:885,_ZNSt6chrono10time_pointINS_3_V212steady_clockENS_8durationIlSt5ratioILl1ELl1EEEEEC2ERKS6_
FNDA:0,_ZNSt6chrono10time_pointINS_3_V212steady_clockENS_8durationIlSt5ratioILl1ELl1EEEEEC2ERKS6_
FN:898,_ZNKSt6chrono10time_pointINS_3_V212steady_clockENS_8durationIlSt5ratioILl1ELl1000000000EEEEE16time_since_epochEv
FNDA:0,_ZNKSt6chrono10time_pointINS_3_V212steady_clockENS_8durationIlSt5ratioILl1ELl1000000000EEEEE16time_since_epochEv
FN:898,_ZNKSt6chrono10time_pointINS_3_V212steady_clockENS_8durationIlSt5ratioILl1ELl1EEEEE16time_since_epochEv
FNDA:0,_ZNKSt6chrono10time_pointINS_3_V212steady_clockENS_8durationIlSt5ratioILl1ELl1EEEEE16time_since_epochEv
FN:957,_ZNSt6chrono15time_point_castINS_8durationIlSt5ratioILl1ELl1EEEENS_3_V212steady_clockENS1_IlS2_ILl1ELl1000000000EEEEEENSt9enable_ifIXsrNS_13__is_durationIT_EE5valueENS_10time_pointIT0_SB_EEE4typeERKNSD_ISE_T1_EE
FNDA:0,_ZNSt6chrono15time_point_castINS_8durationIlSt5ratioILl1ELl1EEEENS_3_V212steady_clockENS1_IlS2_ILl1ELl1000000000EEEEEENSt9enable_ifIXsrNS_13__is_durationIT_EE5valueENS_10time_pointIT0_SB_EEE4typeERKNSD_ISE_T1_EE
FN:1002,_ZNSt6chronoplINS_3_V212steady_clockENS_8durationIlSt5ratioILl1ELl1000000000EEEElS5_EENS_10time_pointIT_NSt11common_typeIJT0_NS3_IT1_T2_EEEE4typeEEERKNS7_IS8_SA_EERKSD_
FNDA:0,_ZNSt6chronoplINS_3_V212steady_clockENS_8durationIlSt5ratioILl1ELl1000000000EEEElS5_EENS_10time_pointIT_NSt11common_typeIJT0_NS3_IT1_T2_EEEE4typeEEERKNS7_IS8_SA_EERKSD_
FN:1042,_ZNSt6chronomiINS_3_V212steady_clockENS_8durationIlSt5ratioILl1ELl1000000000EEEENS3_IlS4_ILl1ELl1EEEEEENSt11common_typeIJT0_T1_EE4typeERKNS_10time_pointIT_SA_EERKNSE_ISF_SB_EE
FNDA:0,_ZNSt6chronomiINS_3_V212steady_clockENS_8durationIlSt5ratioILl1ELl1000000000EEEENS3_IlS4_ILl1ELl1EEEEEENSt11common_typeIJT0_T1_EE4typeERKNS_10time_pointIT_SA_EERKNSE_ISF_SB_EE
FN:1075,_ZNSt6chronoltINS_3_V212steady_clockENS_8durationIlSt5ratioILl1ELl1000000000EEEES6_EEbRKNS_10time_pointIT_T0_EERKNS7_IS8_T1_EE
FNDA:0,_ZNSt6chronoltINS_3_V212steady_clockENS_8durationIlSt5ratioILl1ELl1000000000EEEES6_EEbRKNS_10time_pointIT_T0_EERKNS7_IS8_T1_EE
FN:3198,_ZNSt8literals15chrono_literals16__check_overflowINSt6chrono8durationIlSt5ratioILl1ELl1EEEEJLc49EEEET_v
FNDA:0,_ZNSt8literals15chrono_literals16__check_overflowINSt6chrono8durationIlSt5ratioILl1ELl1EEEEJLc49EEEET_v
FN:3198,_ZNSt8literals15chrono_literals16__check_overflowINSt6chrono8durationIlSt5ratioILl1ELl1000000EEEEJLc49EEEET_v
FNDA:0,_ZNSt8literals15chrono_literals16__check_overflowINSt6chrono8durationIlSt5ratioILl1ELl1000000EEEEJLc49EEEET_v
FN:3238,_ZNSt8literals15chrono_literalsli1sIJLc49EEEENSt6chrono8durationIlSt5ratioILl1ELl1EEEEv
FNDA:0,_ZNSt8literals15chrono_literalsli1sIJLc49EEEENSt6chrono8durationIlSt5ratioILl1ELl1EEEEv
FN:3260,_ZNSt8literals15chrono_literalsli2usIJLc49EEEENSt6chrono8durationIlSt5ratioILl1ELl1000000EEEEv
FNDA:0,_ZNSt8literals15chrono_literalsli2usIJLc49EEEENSt6chrono8durationIlSt5ratioILl1ELl1000000EEEEv
DA:211,0
DA:214,0
DA:223,0
DA:226,0
DA:227,0
DA:236,0
DA:239,0
DA:240,0
DA:236,0
DA:239,0
DA:240,0
DA:236,0
DA:239,0
DA:240,0
DA:267,0
DA:276,0
DA:267,0
DA:276,0
DA:267,0
DA:276,0
DA:267,0
DA:276,0
DA:267,0
DA:276,0
DA:412,0
DA:414,0
DA:420,0
DA:422,0
DA:432,0
DA:433,0
DA:521,0
DA:522,0
DA:521,0
DA:522,0
DA:521,0
DA:522,0
DA:521,0
DA:522,0
DA:529,0
DA:530,0
DA:529,0
DA:530,0
DA:529,0
DA:530,0
DA:537,0
DA:538,0
DA:537,0
DA:538,0
DA:537,0
DA:538,0
DA:547,0
DA:548,0
DA:623,0
DA:624,0
DA:646,0
DA:652,0
DA:646,0
DA:652,0
DA:660,0
DA:666,0
DA:691,0
DA:695,0
DA:691,0
DA:695,0
DA:700,0
DA:701,0
DA:700,0
DA:701,0
DA:760,0
DA:766,0
DA:772,0
DA:778,0
DA:772,0
DA:778,0
DA:772,0
DA:778,0
DA:885,0
DA:886,0
DA:887,0
DA:885,0
DA:886,0
DA:887,0
DA:898,0
DA:899,0
DA:898,0
DA:899,0
DA:957,0
DA:960,0
DA:1002,0
DA:1008,0
DA:1042,0
DA:1044,0
DA:1075,0
DA:1077,0
DA:3198,0
DA:3201,0
DA:3204,0
DA:3198,0
DA:3201,0
DA:3204,0
DA:3238,0
DA:3239,0
DA:3260,0
DA:3261,0
end_of_record
SF:/usr/include/c++/11/bits/deque.tcc
FN:164,_ZNSt5dequeISt6vectorIhSaIhEESaIS2_EE12emplace_backIJRPKhS7_EEEvDpOT_
FNDA:0,_ZNSt5dequeISt6vectorIhSaIhEESaIS2_EE12emplace_backIJRPKhS7_EEEvDpOT_
FN:481,_ZNSt5dequeISt6vectorIhSaIhEESaIS2_EE16_M_push_back_auxIJRPKhS7_EEEvDpOT_
FNDA:0,_ZNSt5dequeISt6vectorIhSaIhEESaIS2_EE16_M_push_back_auxIJRPKhS7_EEEvDpOT_
FN:573,_ZNSt5dequeISt6vectorIhSaIhEESaIS2_EE16_M_pop_front_auxEv
FNDA:0,_ZNSt5dequeISt6vectorIhSaIhEESaIS2_EE16_M_pop_front_auxEv
FN:856,_ZNSt5dequeISt6vectorIhSaIhEESaIS2_EE19_M_destroy_data_auxESt15_Deque_iteratorIS2_RS2_PS2_ES8_
FNDA:0,_ZNSt5dequeISt6vectorIhSaIhEESaIS2_EE19_M_destroy_data_auxESt15_Deque_iteratorIS2_RS2_PS2_ES8_
FN:928,_ZNSt5dequeISt6vectorIhSaIhEESaIS2_EE17_M_reallocate_mapEmb
FNDA:0,_ZNSt5dequeISt6vectorIhSaIhEESaIS2_EE17_M_reallocate_mapEmb
DA:164,0
DA:167,0
DA:168,0
DA:170,0
DA:173,0
DA:176,0
DA:180,0
DA:481,0
DA:489,0
DA:490,0
DA:493,0
DA:494,0
DA:498,0
DA:504,0
DA:506,0
DA:508,0
DA:510,0
DA:511,0
DA:513,0
DA:573,0
DA:576,0
DA:578,0
DA:579,0
DA:580,0
DA:581,0
DA:856,0
DA:859,0
DA:860,0
DA:861,0
DA:862,0
DA:864,0
DA:866,0
DA:867,0
DA:868,0
DA:869,0
DA:872,0
DA:873,0
DA:874,0
DA:928,0
DA:931,0
DA:932,0
DA:933,0
DA:936,0
DA:938,0
DA:939,0
DA:940,0
DA:941,0
DA:942,0
DA:943,0
DA:946,0
DA:947,0
DA:948,0
DA:952,0
DA:953,0
DA:956,0
DA:957,0
DA:958,0
DA:959,0
DA:960,0
DA:962,0
DA:964,0
DA:965,0
DA:968,0
DA:969,0
DA:970,0
end_of_record
SF:/usr/include/c++/11/condition_variable
FN:100,_ZNSt18condition_variable4waitIZN9WaitQueueINSt6chrono8durationIlSt5ratioILl1ELl1000000EEEESt6vectorIhSaIhEEE4waitIZNSA_18wait_for_not_emptyERKS6_RSt11unique_lockISt5mutexEEUlvE_EEiSD_SH_RS_T_EUlvE_EEvSH_SK_
FNDA:0,_ZNSt18condition_variable4waitIZN9WaitQueueINSt6chrono8durationIlSt5ratioILl1ELl1000000EEEESt6vectorIhSaIhEEE4waitIZNSA_18wait_for_not_emptyERKS6_RSt11unique_lockISt5mutexEEUlvE_EEiSD_SH_RS_T_EUlvE_EEvSH_SK_
FN:100,_ZNSt18condition_variable4waitIZN9WaitQueueINSt6chrono8durationIlSt5ratioILl1ELl1000000EEEESt6vectorIhSaIhEEE4waitIZNSA_12wait_for_hwmElRKS6_RSt11unique_lockISt5mutexEEUlvE_EEiSD_SH_RS_T_EUlvE_EEvSH_SK_
FNDA:0,_ZNSt18condition_variable4waitIZN9WaitQueueINSt6chrono8durationIlSt5ratioILl1ELl1000000EEEESt6vectorIhSaIhEEE4waitIZNSA_12wait_for_hwmElRKS6_RSt11unique_lockISt5mutexEEUlvE_EEiSD_SH_RS_T_EUlvE_EEvSH_SK_
FN:109,_ZNSt18condition_variable10wait_untilINSt6chrono8durationIlSt5ratioILl1ELl1000000000EEEEEESt9cv_statusRSt11unique_lockISt5mutexERKNS1_10time_pointINS1_3_V212steady_clockET_EE
FNDA:0,_ZNSt18condition_variable10wait_untilINSt6chrono8durationIlSt5ratioILl1ELl1000000000EEEEEESt9cv_statusRSt11unique_lockISt5mutexERKNS1_10time_pointINS1_3_V212steady_clockET_EE
FN:147,_ZNSt18condition_variable10wait_untilINSt6chrono3_V212steady_clockENS1_8durationIlSt5ratioILl1ELl1000000000EEEEZN9WaitQueueINS4_IlS5_ILl1ELl1000000EEEESt6vectorIhSaIhEEE4waitIZNSE_18wait_for_not_emptyERKSA_RSt11unique_lockISt5mutexEEUlvE_EEiSH_SL_RS_T_EUlvE_EEbSL_RKNS1_10time_pointISO_T0_EET1_
FNDA:0,_ZNSt18condition_variable10wait_untilINSt6chrono3_V212steady_clockENS1_8durationIlSt5ratioILl1ELl1000000000EEEEZN9WaitQueueINS4_IlS5_ILl1ELl1000000EEEESt6vectorIhSaIhEEE4waitIZNSE_18wait_for_not_emptyERKSA_RSt11unique_lockISt5mutexEEUlvE_EEiSH_SL_RS_T_EUlvE_EEbSL_RKNS1_10time_pointISO_T0_EET1_
FN:147,_ZNSt18condition_variable10wait_untilINSt6chrono3_V212steady_clockENS1_8durationIlSt5ratioILl1ELl1000000000EEEEZN9WaitQueueINS4_IlS5_ILl1ELl1000000EEEESt6vectorIhSaIhEEE4waitIZNSE_12wait_for_hwmElRKSA_RSt11unique_lockISt5mutexEEUlvE_EEiSH_SL_RS_T_EUlvE_EEbSL_RKNS1_10time_pointISO_T0_EET1_
FNDA:0,_ZNSt18condition_variable10wait_untilINSt6chrono3_V212steady_clockENS1_8durationIlSt5ratioILl1ELl1000000000EEEEZN9WaitQueueINS4_IlS5_ILl1ELl1000000EEEESt6vectorIhSaIhEEE4waitIZNSE_12wait_for_hwmElRKSA_RSt11unique_lockISt5mutexEEUlvE_EEiSH_SL_RS_T_EUlvE_EEbSL_RKNS1_10time_pointISO_T0_EET1_
FN:170,_ZNSt18condition_variable8wait_forIlSt5ratioILl1ELl1000000EEZN9WaitQueueINSt6chrono8durationIlS2_EESt6vectorIhSaIhEEE4waitIZNSA_18wait_for_not_emptyERKS6_RSt11unique_lockISt5mutexEEUlvE_EEiSD_SH_RS_T_EUlvE_EEbSH_RKNS5_ISK_T0_EET1_
FNDA:0,_ZNSt18condition_variable8wait_forIlSt5ratioILl1ELl1000000EEZN9WaitQueueINSt6chrono8durationIlS2_EESt6vectorIhSaIhEEE4waitIZNSA_18wait_for_not_emptyERKS6_RSt11unique_lockISt5mutexEEUlvE_EEiSD_SH_RS_T_EUlvE_EEbSH_RKNS5_ISK_T0_EET1_
FN:170,_ZNSt18condition_variable8wait_forIlSt5ratioILl1ELl1000000EEZN9WaitQueueINSt6chrono8durationIlS2_EESt6vectorIhSaIhEEE4waitIZNSA_12wait_for_hwmElRKS6_RSt11unique_lockISt5mutexEEUlvE_EEiSD_SH_RS_T_EUlvE_EEbSH_RKNS5_ISK_T0_EET1_
FNDA:0,_ZNSt18condition_variable8wait_forIlSt5ratioILl1ELl1000000EEZN9WaitQueueINSt6chrono8durationIlS2_EESt6vectorIhSaIhEEE4waitIZNSA_12wait_for_hwmElRKS6_RSt11unique_lockISt5mutexEEUlvE_EEiSD_SH_RS_T_EUlvE_EEbSH_RKNS5_ISK_T0_EET1_
FN:189,_ZNSt18condition_variable17__wait_until_implINSt6chrono8durationIlSt5ratioILl1ELl1000000000EEEEEESt9cv_statusRSt11unique_lockISt5mutexERKNS1_10time_pointINS1_3_V212steady_clockET_EE
FNDA:0,_ZNSt18condition_variable17__wait_until_implINSt6chrono8durationIlSt5ratioILl1ELl1000000000EEEEEESt9cv_statusRSt11unique_lockISt5mutexERKNS1_10time_pointINS1_3_V212steady_clockET_EE
DA:100,0
DA:102,0
DA:103,0
DA:104,0
DA:100,0
DA:102,0
DA:103,0
DA:104,0
DA:109,0
DA:111,0
DA:147,0
DA:151,0
DA:152,0
DA:153,0
DA:154,0
DA:147,0
DA:151,0
DA:152,0
DA:153,0
DA:154,0
DA:170,0
DA:175,0
DA:176,0
DA:177,0
DA:178,0
DA:170,0
DA:175,0
DA:176,0
DA:177,0
DA:178,0
DA:189,0
DA:192,0
DA:193,0
DA:195,0
DA:197,0
DA:198,0
DA:201,0
DA:203,0
DA:204,0
end_of_record
SF:/usr/include/c++/11/bits/std_mutex.h
FN:65,_ZNSt12__mutex_baseC2Ev
FNDA:0,_ZNSt12__mutex_baseC2Ev
FN:91,_ZNSt5mutexC2Ev
FNDA:0,_ZNSt5mutexC2Ev
FN:98,_ZNSt5mutex4lockEv
FNDA:0,_ZNSt5mutex4lockEv
FN:115,_ZNSt5mutex6unlockEv
FNDA:0,_ZNSt5mutex6unlockEv
FN:122,_ZNSt5mutex13native_handleEv
FNDA:0,_ZNSt5mutex13native_handleEv
FN:167,_ZNSt9__condvar10wait_untilERSt5mutexiR8timespec
FNDA:0,_ZNSt9__condvar10wait_untilERSt5mutexiR8timespec
DA:65,0
DA:91,0
DA:98,0
DA:100,0
DA:103,0
DA:104,0
DA:105,0
DA:115,0
DA:118,0
DA:119,0
DA:122,0
DA:123,0
DA:167,0
DA:169,0
DA:171,0
end_of_record
SF:/usr/include/c++/11/atomic
FN:431,_ZNSt6atomicIPFiP8_IO_FILEPKcP13__va_list_tagEEaSES7_
FNDA:0,_ZNSt6atomicIPFiP8_IO_FILEPKcP13__va_list_tagEEaSES7_
DA:431,0
DA:432,0
end_of_record
SF:/usr/include/c++/11/bits/stl_construct.h
FN:108,_ZSt10_ConstructIcJEEvPT_DpOT0_
FNDA:0,_ZSt10_ConstructIcJEEvPT_DpOT0_
FN:135,_ZSt8_DestroyISt6vectorIhSaIhEEEvPT_
FNDA:0,_ZSt8_DestroyISt6vectorIhSaIhEEEvPT_
FN:149,_ZNSt12_Destroy_auxILb0EE9__destroyIPSt6vectorIhSaIhEEEEvT_S6_
FNDA:0,_ZNSt12_Destroy_auxILb0EE9__destroyIPSt6vectorIhSaIhEEEEvT_S6_
FN:161,_ZNSt12_Destroy_auxILb1EE9__destroyIPhEEvT_S3_
FNDA:0,_ZNSt12_Destroy_auxILb1EE9__destroyIPhEEvT_S3_
FN:161,_ZNSt12_Destroy_auxILb1EE9__destroyIPcEEvT_S3_
FNDA:0,_ZNSt12_Destroy_auxILb1EE9__destroyIPcEEvT_S3_
FN:171,_ZSt8_DestroyIPhEvT_S1_
FNDA:0,_ZSt8_DestroyIPhEvT_S1_
FN:171,_ZSt8_DestroyIPSt6vectorIhSaIhEEEvT_S4_
FNDA:0,_ZSt8_DestroyIPSt6vectorIhSaIhEEEvT_S4_
FN:171,_ZSt8_DestroyIPcEvT_S1_
FNDA:0,_ZSt8_DestroyIPcEvT_S1_
DA:108,0
DA:109,0
DA:135,0
DA:140,0
DA:142,0
DA:149,0
DA:151,0
DA:152,0
DA:153,0
DA:161,0
DA:161,0
DA:171,0
DA:185,0
DA:186,0
DA:171,0
DA:185,0
DA:186,0
DA:171,0
DA:185,0
DA:186,0
end_of_record
SF:/usr/include/x86_64-linux-gnu/c++/11/bits/gthr-default.h
FN:248,_ZL18__gthread_active_pv
FNDA:0,_ZL18__gthread_active_pv
FN:746,_ZL20__gthread_mutex_lockP15pthread_mutex_t
FNDA:0,_ZL20__gthread_mutex_lockP15pthread_mutex_t
FN:776,_ZL22__gthread_mutex_unlockP15pthread_mutex_t
FNDA:0,_ZL22__gthread_mutex_unlockP15pthread_mutex_t
DA:248,0
DA:252,0
DA:746,0
DA:748,0
DA:749,0
DA:751,0
DA:776,0
DA:778,0
DA:779,0
DA:781,0
end_of_record
SF:/home/david/node-lora-comms/test/simulate.cc
FN:31,_ZN9WaitQueueINSt6chrono8durationIlSt5ratioILl1ELl1000000EEEESt6vectorIhSaIhEEE11maybe_resetIZN5QueueIS4_E5resetEvEUlvE_EEvT_
FNDA:0,_ZN9WaitQueueINSt6chrono8durationIlSt5ratioILl1ELl1000000EEEESt6vectorIhSaIhEEE11maybe_resetIZN5QueueIS4_E5resetEvEUlvE_EEvT_
FN:31,_ZN9WaitQueueINSt6chrono8durationIlSt5ratioILl1ELl1000000EEEESt6vectorIhSaIhEEE11maybe_resetIZN8LogQueueIS4_E5resetEvEUlvE_EEvT_
FNDA:0,_ZN9WaitQueueINSt6chrono8durationIlSt5ratioILl1ELl1000000EEEESt6vectorIhSaIhEEE11maybe_resetIZN8LogQueueIS4_E5resetEvEUlvE_EEvT_
FN:39,_ZN9WaitQueueINSt6chrono8durationIlSt5ratioILl1ELl1000000EEEESt6vectorIhSaIhEEE11maybe_closeIZN5QueueIS4_E5closeEvEUlvE_EEvT_
FNDA:0,_ZN9WaitQueueINSt6chrono8durationIlSt5ratioILl1ELl1000000EEEESt6vectorIhSaIhEEE11maybe_closeIZN5QueueIS4_E5closeEvEUlvE_EEvT_
FN:39,_ZN9WaitQueueINSt6chrono8durationIlSt5ratioILl1ELl1000000EEEESt6vectorIhSaIhEEE11maybe_closeIZN8LogQueueIS4_E5closeEbEUlvE_EEvT_
FNDA:0,_ZN9WaitQueueINSt6chrono8durationIlSt5ratioILl1ELl1000000EEEESt6vectorIhSaIhEEE11maybe_closeIZN8LogQueueIS4_E5closeEbEUlvE_EEvT_
FN:52,_ZN9WaitQueueINSt6chrono8durationIlSt5ratioILl1ELl1000000EEEESt6vectorIhSaIhEEE7enqueueIZN5QueueIS4_E4sendEPKvmlRKS4_EUlvE_EEilSF_T_
FNDA:0,_ZN9WaitQueueINSt6chrono8durationIlSt5ratioILl1ELl1000000EEEESt6vectorIhSaIhEEE7enqueueIZN5QueueIS4_E4sendEPKvmlRKS4_EUlvE_EEilSF_T_
FN:77,_ZN9WaitQueueINSt6chrono8durationIlSt5ratioILl1ELl1000000EEEESt6vectorIhSaIhEEE7dequeueIZN5QueueIS4_E4recvEPvmRKS4_EUlvE_EEiSE_T_
FNDA:0,_ZN9WaitQueueINSt6chrono8durationIlSt5ratioILl1ELl1000000EEEESt6vectorIhSaIhEEE7dequeueIZN5QueueIS4_E4recvEPvmRKS4_EUlvE_EEiSE_T_
FN:97,_ZN9WaitQueueINSt6chrono8durationIlSt5ratioILl1ELl1000000EEEESt6vectorIhSaIhEEE12wait_for_hwmElRKS4_RSt11unique_lockISt5mutexE
FNDA:0,_ZN9WaitQueueINSt6chrono8durationIlSt5ratioILl1ELl1000000EEEESt6vectorIhSaIhEEE12wait_for_hwmElRKS4_RSt11unique_lockISt5mutexE
FN:100,_ZZN9WaitQueueINSt6chrono8durationIlSt5ratioILl1ELl1000000EEEESt6vectorIhSaIhEEE12wait_for_hwmElRKS4_RSt11unique_lockISt5mutexEENKUlvE_clEv
FNDA:0,_ZZN9WaitQueueINSt6chrono8durationIlSt5ratioILl1ELl1000000EEEESt6vectorIhSaIhEEE12wait_for_hwmElRKS4_RSt11unique_lockISt5mutexEENKUlvE_clEv
FN:106,_ZN9WaitQueueINSt6chrono8durationIlSt5ratioILl1ELl1000000EEEESt6vectorIhSaIhEEE18wait_for_not_emptyERKS4_RSt11unique_lockISt5mutexE
FNDA:0,_ZN9WaitQueueINSt6chrono8durationIlSt5ratioILl1ELl1000000EEEESt6vectorIhSaIhEEE18wait_for_not_emptyERKS4_RSt11unique_lockISt5mutexE
FN:109,_ZZN9WaitQueueINSt6chrono8durationIlSt5ratioILl1ELl1000000EEEESt6vectorIhSaIhEEE18wait_for_not_emptyERKS4_RSt11unique_lockISt5mutexEENKUlvE_clEv
FNDA:0,_ZZN9WaitQueueINSt6chrono8durationIlSt5ratioILl1ELl1000000EEEESt6vectorIhSaIhEEE18wait_for_not_emptyERKS4_RSt11unique_lockISt5mutexEENKUlvE_clEv
FN:123,_ZN9WaitQueueINSt6chrono8durationIlSt5ratioILl1ELl1000000EEEESt6vectorIhSaIhEEE4waitIZNS8_18wait_for_not_emptyERKS4_RSt11unique_lockISt5mutexEEUlvE_EEiSB_SF_RSt18condition_variableT_
FNDA:0,_ZN9WaitQueueINSt6chrono8durationIlSt5ratioILl1ELl1000000EEEESt6vectorIhSaIhEEE4waitIZNS8_18wait_for_not_emptyERKS4_RSt11unique_lockISt5mutexEEUlvE_EEiSB_SF_RSt18condition_variableT_
FN:123,_ZN9WaitQueueINSt6chrono8durationIlSt5ratioILl1ELl1000000EEEESt6vectorIhSaIhEEE4waitIZNS8_12wait_for_hwmElRKS4_RSt11unique_lockISt5mutexEEUlvE_EEiSB_SF_RSt18condition_variableT_
FNDA:0,_ZN9WaitQueueINSt6chrono8durationIlSt5ratioILl1ELl1000000EEEESt6vectorIhSaIhEEE4waitIZNS8_12wait_for_hwmElRKS4_RSt11unique_lockISt5mutexEEUlvE_EEiSB_SF_RSt18condition_variableT_
FN:127,_ZZN9WaitQueueINSt6chrono8durationIlSt5ratioILl1ELl1000000EEEESt6vectorIhSaIhEEE4waitIZNS8_12wait_for_hwmElRKS4_RSt11unique_lockISt5mutexEEUlvE_EEiSB_SF_RSt18condition_variableT_ENKUlvE_clEv
FNDA:0,_ZZN9WaitQueueINSt6chrono8durationIlSt5ratioILl1ELl1000000EEEESt6vectorIhSaIhEEE4waitIZNS8_12wait_for_hwmElRKS4_RSt11unique_lockISt5mutexEEUlvE_EEiSB_SF_RSt18condition_variableT_ENKUlvE_clEv
FN:127,_ZZN9WaitQueueINSt6chrono8durationIlSt5ratioILl1ELl1000000EEEESt6vectorIhSaIhEEE4waitIZNS8_18wait_for_not_emptyERKS4_RSt11unique_lockISt5mutexEEUlvE_EEiSB_SF_RSt18condition_variableT_ENKUlvE_clEv
FNDA:0,_ZZN9WaitQueueINSt6chrono8durationIlSt5ratioILl1ELl1000000EEEESt6vectorIhSaIhEEE4waitIZNS8_18wait_for_not_emptyERKS4_RSt11unique_lockISt5mutexEEUlvE_EEiSB_SF_RSt18condition_variableT_ENKUlvE_clEv
FN:151,_ZN5QueueINSt6chrono8durationIlSt5ratioILl1ELl1000000EEEEEC2Em
FNDA:0,_ZN5QueueINSt6chrono8durationIlSt5ratioILl1ELl1000000EEEEEC2Em
FN:155,_ZN5QueueINSt6chrono8durationIlSt5ratioILl1ELl1000000EEEEE5resetEv
FNDA:0,_ZN5QueueINSt6chrono8durationIlSt5ratioILl1ELl1000000EEEEE5resetEv
FN:156,_ZZN5QueueINSt6chrono8durationIlSt5ratioILl1ELl1000000EEEEE5resetEvENKUlvE_clEv
FNDA:0,_ZZN5QueueINSt6chrono8durationIlSt5ratioILl1ELl1000000EEEEE5resetEvENKUlvE_clEv
FN:159,_ZN5QueueINSt6chrono8durationIlSt5ratioILl1ELl1000000EEEEE5closeEv
FNDA:0,_ZN5QueueINSt6chrono8durationIlSt5ratioILl1ELl1000000EEEEE5closeEv
FN:160,_ZZN5QueueINSt6chrono8durationIlSt5ratioILl1ELl1000000EEEEE5closeEvENKUlvE_clEv
FNDA:0,_ZZN5QueueINSt6chrono8durationIlSt5ratioILl1ELl1000000EEEEE5closeEvENKUlvE_clEv
FN:163,_ZN5QueueINSt6chrono8durationIlSt5ratioILl1ELl1000000EEEEE4sendEPKvmlRKS4_
FNDA:0,_ZN5QueueINSt6chrono8durationIlSt5ratioILl1ELl1000000EEEEE4sendEPKvmlRKS4_
FN:165,_ZZN5QueueINSt6chrono8durationIlSt5ratioILl1ELl1000000EEEEE4sendEPKvmlRKS4_ENKUlvE_clEv
FNDA:0,_ZZN5QueueINSt6chrono8durationIlSt5ratioILl1ELl1000000EEEEE4sendEPKvmlRKS4_ENKUlvE_clEv
FN:175,_ZN5QueueINSt6chrono8durationIlSt5ratioILl1ELl1000000EEEEE4recvEPvmRKS4_
FNDA:0,_ZN5QueueINSt6chrono8durationIlSt5ratioILl1ELl1000000EEEEE4recvEPvmRKS4_
FN:176,_ZZN5QueueINSt6chrono8durationIlSt5ratioILl1ELl1000000EEEEE4recvEPvmRKS4_ENKUlvE_clEv
FNDA:0,_ZZN5QueueINSt6chrono8durationIlSt5ratioILl1ELl1000000EEEEE4recvEPvmRKS4_ENKUlvE_clEv
FN:195,_ZN8LogQueueINSt6chrono8durationIlSt5ratioILl1ELl1000000EEEEEC2EmlRKS4_
FNDA:0,_ZN8LogQueueINSt6chrono8durationIlSt5ratioILl1ELl1000000EEEEEC2EmlRKS4_
FN:203,_ZN8LogQueueINSt6chrono8durationIlSt5ratioILl1ELl1000000EEEEE5resetEv
FNDA:0,_ZN8LogQueueINSt6chrono8durationIlSt5ratioILl1ELl1000000EEEEE5resetEv
FN:204,_ZZN8LogQueueINSt6chrono8durationIlSt5ratioILl1ELl1000000EEEEE5resetEvENKUlvE_clEv
FNDA:0,_ZZN8LogQueueINSt6chrono8durationIlSt5ratioILl1ELl1000000EEEEE5resetEvENKUlvE_clEv
FN:210,_ZN8LogQueueINSt6chrono8durationIlSt5ratioILl1ELl1000000EEEEE5closeEb
FNDA:0,_ZN8LogQueueINSt6chrono8durationIlSt5ratioILl1ELl1000000EEEEE5closeEb
FN:211,_ZZN8LogQueueINSt6chrono8durationIlSt5ratioILl1ELl1000000EEEEE5closeEbENKUlvE_clEv
FNDA:0,_ZZN8LogQueueINSt6chrono8durationIlSt5ratioILl1ELl1000000EEEEE5closeEbENKUlvE_clEv
FN:217,_ZN8LogQueueINSt6chrono8durationIlSt5ratioILl1ELl1000000EEEEE5writeEPKcP13__va_list_tag
FNDA:0,_ZN8LogQueueINSt6chrono8durationIlSt5ratioILl1ELl1000000EEEEE5writeEPKcP13__va_list_tag
FN:226,_ZN8LogQueueINSt6chrono8durationIlSt5ratioILl1ELl1000000EEEEE13set_write_hwmEl
FNDA:0,_ZN8LogQueueINSt6chrono8durationIlSt5ratioILl1ELl1000000EEEEE13set_write_hwmEl
FN:230,_ZN8LogQueueINSt6chrono8durationIlSt5ratioILl1ELl1000000EEEEE17set_write_timeoutERKS4_
FNDA:0,_ZN8LogQueueINSt6chrono8durationIlSt5ratioILl1ELl1000000EEEEE17set_write_timeoutERKS4_
FN:234,_ZN8LogQueueINSt6chrono8durationIlSt5ratioILl1ELl1000000EEEEE16set_max_msg_sizeEm
FNDA:0,_ZN8LogQueueINSt6chrono8durationIlSt5ratioILl1ELl1000000EEEEE16set_max_msg_sizeEm
FN:238,_ZN8LogQueueINSt6chrono8durationIlSt5ratioILl1ELl1000000EEEEE16get_max_msg_sizeEv
FNDA:0,_ZN8LogQueueINSt6chrono8durationIlSt5ratioILl1ELl1000000EEEEE16get_max_msg_sizeEv
FN:243,_ZN8LogQueueINSt6chrono8durationIlSt5ratioILl1ELl1000000EEEEE18wait_for_not_emptyERKS4_RSt11unique_lockISt5mutexE
FNDA:0,_ZN8LogQueueINSt6chrono8durationIlSt5ratioILl1ELl1000000EEEEE18wait_for_not_emptyERKS4_RSt11unique_lockISt5mutexE
FN:261,_ZN4LinkC2Ev
FNDA:0,_ZN4LinkC2Ev
FN:266,_ZN4Link5resetEv
FNDA:0,_ZN4Link5resetEv
FN:274,_ZN4Link5closeEv
FNDA:0,_ZN4Link5closeEv
FN:279,_ZN4Link21set_from_fwd_send_hwmEl
FNDA:0,_ZN4Link21set_from_fwd_send_hwmEl
FN:283,_ZN4Link25set_from_fwd_send_timeoutERKNSt6chrono8durationIlSt5ratioILl1ELl1000000EEEE
FNDA:0,_ZN4Link25set_from_fwd_send_timeoutERKNSt6chrono8durationIlSt5ratioILl1ELl1000000EEEE
FN:287,_ZN4Link23set_to_fwd_recv_timeoutERKNSt6chrono8durationIlSt5ratioILl1ELl1000000EEEE
FNDA:0,_ZN4Link23set_to_fwd_recv_timeoutERKNSt6chrono8durationIlSt5ratioILl1ELl1000000EEEE
FN:291,_ZN4Link13from_fwd_sendEPKvm
FNDA:0,_ZN4Link13from_fwd_sendEPKvm
FN:296,_ZN4Link13from_fwd_recvEPvmRKNSt6chrono8durationIlSt5ratioILl1ELl1000000EEEE
FNDA:0,_ZN4Link13from_fwd_recvEPvmRKNSt6chrono8durationIlSt5ratioILl1ELl1000000EEEE
FN:301,_ZN4Link11to_fwd_sendEPKvmlRKNSt6chrono8durationIlSt5ratioILl1ELl1000000EEEE
FNDA:0,_ZN4Link11to_fwd_sendEPKvmlRKNSt6chrono8durationIlSt5ratioILl1ELl1000000EEEE
FN:306,_ZN4Link11to_fwd_recvEPvm
FNDA:0,_ZN4Link11to_fwd_recvEPvm
FN:328,_ZL15to_microsecondsPK7timeval
FNDA:0,_ZL15to_microsecondsPK7timeval
FN:332,_Z3logR8LogQueueINSt6chrono8durationIlSt5ratioILl1ELl1000000EEEEEPKcz
FNDA:0,_Z3logR8LogQueueINSt6chrono8durationIlSt5ratioILl1ELl1000000EEEEEPKcz
FN:339,start
FNDA:0,start
FN:365,recv_from
FNDA:0,recv_from
FN:385,send_to
FNDA:0,send_to
FN:405,set_logger
FNDA:0,set_logger
FN:409,log_to_queues
FNDA:0,log_to_queues
FN:420,close_log_queues
FNDA:0,close_log_queues
FN:425,get_log_info_message
FNDA:0,get_log_info_message
FN:430,get_log_error_message
FNDA:0,get_log_error_message
FN:435,set_gw_send_hwm
FNDA:0,set_gw_send_hwm
FN:443,set_gw_send_timeout
FNDA:0,set_gw_send_timeout
FN:451,set_gw_recv_timeout
FNDA:0,set_gw_recv_timeout
FN:459,set_log_write_hwm
FNDA:0,set_log_write_hwm
FN:464,set_log_write_timeout
FNDA:0,set_log_write_timeout
FN:470,set_log_max_msg_size
FNDA:0,set_log_max_msg_size
FN:475,get_log_max_msg_size
FNDA:0,get_log_max_msg_size
FN:480,stop
FNDA:0,stop
FN:485,reset_log_queues
FNDA:0,reset_log_queues
FN:490,reset
FNDA:0,reset
DA:31,0
DA:32,0
DA:33,0
DA:34,0
DA:36,0
DA:31,0
DA:32,0
DA:33,0
DA:34,0
DA:36,0
DA:39,0
DA:40,0
DA:41,0
DA:42,0
DA:43,0
DA:44,0
DA:45,0
DA:46,0
DA:47,0
DA:48,0
DA:49,0
DA:39,0
DA:40,0
DA:41,0
DA:42,0
DA:43,0
DA:44,0
DA:45,0
DA:46,0
DA:47,0
DA:48,0
DA:49,0
DA:52,0
DA:53,0
DA:55,0
DA:56,0
DA:57,0
DA:60,0
DA:61,0
DA:64,0
DA:65,0
DA:66,0
DA:68,0
DA:69,0
DA:73,0
DA:74,0
DA:77,0
DA:78,0
DA:80,0
DA:81,0
DA:82,0
DA:85,0
DA:86,0
DA:87,0
DA:89,0
DA:90,0
DA:94,0
DA:95,0
DA:97,0
DA:100,0
DA:102,0
DA:103,0
DA:106,0
DA:109,0
DA:111,0
DA:112,0
DA:123,0
DA:127,0
DA:131,0
DA:133,0
DA:134,0
DA:135,0
DA:136,0
DA:139,0
DA:140,0
DA:143,0
DA:123,0
DA:127,0
DA:131,0
DA:133,0
DA:134,0
DA:135,0
DA:136,0
DA:139,0
DA:140,0
DA:143,0
DA:127,0
DA:127,0
DA:128,0
DA:151,0
DA:152,0
DA:153,0
DA:155,0
DA:156,0
DA:157,0
DA:159,0
DA:160,0
DA:161,0
DA:163,0
DA:165,0
DA:166,0
DA:167,0
DA:168,0
DA:169,0
DA:170,0
DA:171,0
DA:172,0
DA:175,0
DA:176,0
DA:177,0
DA:178,0
DA:179,0
DA:180,0
DA:181,0
DA:182,0
DA:183,0
DA:184,0
DA:195,0
DA:199,0
DA:200,0
DA:201,0
DA:203,0
DA:204,0
DA:205,0
DA:206,0
DA:208,0
DA:210,0
DA:211,0
DA:212,0
DA:213,0
DA:215,0
DA:217,0
DA:218,0
DA:219,0
DA:220,0
DA:221,0
DA:223,0
DA:224,0
DA:226,0
DA:227,0
DA:228,0
DA:230,0
DA:231,0
DA:232,0
DA:234,0
DA:235,0
DA:236,0
DA:238,0
DA:239,0
DA:243,0
DA:245,0
DA:246,0
DA:247,0
DA:250,0
DA:261,0
DA:262,0
DA:263,0
DA:264,0
DA:266,0
DA:267,0
DA:268,0
DA:269,0
DA:270,0
DA:271,0
DA:272,0
DA:274,0
DA:275,0
DA:276,0
DA:277,0
DA:279,0
DA:280,0
DA:281,0
DA:283,0
DA:284,0
DA:285,0
DA:287,0
DA:288,0
DA:289,0
DA:291,0
DA:292,0
DA:293,0
DA:296,0
DA:298,0
DA:301,0
DA:303,0
DA:306,0
DA:307,0
DA:312,0
DA:313,0
DA:328,0
DA:329,0
DA:332,0
DA:334,0
DA:336,0
DA:339,0
DA:340,0
DA:341,0
DA:344,0
DA:347,0
DA:349,0
DA:350,0
DA:351,0
DA:353,0
DA:355,0
DA:356,0
DA:357,0
DA:359,0
DA:360,0
DA:362,0
DA:365,0
DA:368,0
DA:369,0
DA:370,0
DA:371,0
DA:374,0
DA:377,0
DA:378,0
DA:379,0
DA:382,0
DA:385,0
DA:388,0
DA:389,0
DA:390,0
DA:391,0
DA:394,0
DA:397,0
DA:398,0
DA:399,0
DA:402,0
DA:405,0
DA:406,0
DA:407,0
DA:409,0
DA:410,0
DA:412,0
DA:414,0
DA:417,0
DA:420,0
DA:421,0
DA:422,0
DA:423,0
DA:425,0
DA:427,0
DA:430,0
DA:432,0
DA:435,0
DA:436,0
DA:437,0
DA:440,0
DA:443,0
DA:444,0
DA:445,0
DA:448,0
DA:451,0
DA:452,0
DA:453,0
DA:456,0
DA:459,0
DA:460,0
DA:461,0
DA:462,0
DA:464,0
DA:465,0
DA:466,0
DA:467,0
DA:468,0
DA:470,0
DA:471,0
DA:472,0
DA:473,0
DA:475,0
DA:476,0
DA:477,0
DA:480,0
DA:481,0
DA:482,0
DA:483,0
DA:485,0
DA:486,0
DA:487,0
DA:488,0
DA:490,0
DA:491,0
DA:492,0
DA:493,0
DA:494,0
end_of_record
SF:/usr/include/c++/11/ext/new_allocator.h
FN:79,_ZN9__gnu_cxx13new_allocatorIcEC2Ev
FNDA:0,_ZN9__gnu_cxx13new_allocatorIcEC2Ev
FN:79,_ZN9__gnu_cxx13new_allocatorIhEC2Ev
FNDA:0,_ZN9__gnu_cxx13new_allocatorIhEC2Ev
FN:79,_ZN9__gnu_cxx13new_allocatorISt6vectorIhSaIhEEEC2Ev
FNDA:0,_ZN9__gnu_cxx13new_allocatorISt6vectorIhSaIhEEEC2Ev
FN:79,_ZN9__gnu_cxx13new_allocatorIPSt6vectorIhSaIhEEEC2Ev
FNDA:0,_ZN9__gnu_cxx13new_allocatorIPSt6vectorIhSaIhEEEC2Ev
FN:82,_ZN9__gnu_cxx13new_allocatorIcEC2ERKS1_
FNDA:0,_ZN9__gnu_cxx13new_allocatorIcEC2ERKS1_
FN:82,_ZN9__gnu_cxx13new_allocatorIhEC2ERKS1_
FNDA:0,_ZN9__gnu_cxx13new_allocatorIhEC2ERKS1_
FN:89,_ZN9__gnu_cxx13new_allocatorIcED2Ev
FNDA:0,_ZN9__gnu_cxx13new_allocatorIcED2Ev
FN:89,_ZN9__gnu_cxx13new_allocatorISt6vectorIhSaIhEEED2Ev
FNDA:0,_ZN9__gnu_cxx13new_allocatorISt6vectorIhSaIhEEED2Ev
FN:89,_ZN9__gnu_cxx13new_allocatorIPSt6vectorIhSaIhEEED2Ev
FNDA:0,_ZN9__gnu_cxx13new_allocatorIPSt6vectorIhSaIhEEED2Ev
FN:89,_ZN9__gnu_cxx13new_allocatorIhED2Ev
FNDA:0,_ZN9__gnu_cxx13new_allocatorIhED2Ev
FN:103,_ZN9__gnu_cxx13new_allocatorIhE8allocateEmPKv
FNDA:0,_ZN9__gnu_cxx13new_allocatorIhE8allocateEmPKv
FN:103,_ZN9__gnu_cxx13new_allocatorIPSt6vectorIhSaIhEEE8allocateEmPKv
FNDA:0,_ZN9__gnu_cxx13new_allocatorIPSt6vectorIhSaIhEEE8allocateEmPKv
FN:103,_ZN9__gnu_cxx13new_allocatorISt6vectorIhSaIhEEE8allocateEmPKv
FNDA:0,_ZN9__gnu_cxx13new_allocatorISt6vectorIhSaIhEEE8allocateEmPKv
FN:103,_ZN9__gnu_cxx13new_allocatorIcE8allocateEmPKv
FNDA:0,_ZN9__gnu_cxx13new_allocatorIcE8allocateEmPKv
FN:132,_ZN9__gnu_cxx13new_allocatorISt6vectorIhSaIhEEE10deallocateEPS3_m
FNDA:0,_ZN9__gnu_cxx13new_allocatorISt6vectorIhSaIhEEE10deallocateEPS3_m
FN:132,_ZN9__gnu_cxx13new_allocatorIPSt6vectorIhSaIhEEE10deallocateEPS4_m
FNDA:0,_ZN9__gnu_cxx13new_allocatorIPSt6vectorIhSaIhEEE10deallocateEPS4_m
FN:132,_ZN9__gnu_cxx13new_allocatorIcE10deallocateEPcm
FNDA:0,_ZN9__gnu_cxx13new_allocatorIcE10deallocateEPcm
FN:132,_ZN9__gnu_cxx13new_allocatorIhE10deallocateEPhm
FNDA:0,_ZN9__gnu_cxx13new_allocatorIhE10deallocateEPhm
FN:154,_ZNK9__gnu_cxx13new_allocatorIcE8max_sizeEv
FNDA:0,_ZNK9__gnu_cxx13new_allocatorIcE8max_sizeEv
FN:154,_ZNK9__gnu_cxx13new_allocatorISt6vectorIhSaIhEEE8max_sizeEv
FNDA:0,_ZNK9__gnu_cxx13new_allocatorISt6vectorIhSaIhEEE8max_sizeEv
FN:154,_ZNK9__gnu_cxx13new_allocatorIhE8max_sizeEv
FNDA:0,_ZNK9__gnu_cxx13new_allocatorIhE8max_sizeEv
FN:160,_ZN9__gnu_cxx13new_allocatorISt6vectorIhSaIhEEE9constructIS3_JRPKhS7_EEEvPT_DpOT0_
FNDA:0,_ZN9__gnu_cxx13new_allocatorISt6vectorIhSaIhEEE9constructIS3_JRPKhS7_EEEvPT_DpOT0_
FN:166,_ZN9__gnu_cxx13new_allocatorISt6vectorIhSaIhEEE7destroyIS3_EEvPT_
FNDA:0,_ZN9__gnu_cxx13new_allocatorISt6vectorIhSaIhEEE7destroyIS3_EEvPT_
FN:197,_ZNK9__gnu_cxx13new_allocatorIcE11_M_max_sizeEv
FNDA:0,_ZNK9__gnu_cxx13new_allocatorIcE11_M_max_sizeEv
FN:197,_ZNK9__gnu_cxx13new_allocatorIPSt6vectorIhSaIhEEE11_M_max_sizeEv
FNDA:0,_ZNK9__gnu_cxx13new_allocatorIPSt6vectorIhSaIhEEE11_M_max_sizeEv
FN:197,_ZNK9__gnu_cxx13new_allocatorISt6vectorIhSaIhEEE11_M_max_sizeEv
FNDA:0,_ZNK9__gnu_cxx13new_allocatorISt6vectorIhSaIhEEE11_M_max_sizeEv
FN:197,_ZNK9__gnu_cxx13new_allocatorIhE11_M_max_sizeEv
FNDA:0,_ZNK9__gnu_cxx13new_allocatorIhE11_M_max_sizeEv
DA:79,0
DA:79,0
DA:79,0
DA:79,0
DA:82,0
DA:82,0
DA:89,0
DA:89,0
DA:89,0
DA:89,0
DA:103,0
DA:111,0
DA:117,0
DA:127,0
DA:103,0
DA:111,0
DA:117,0
DA:127,0
DA:103,0
DA:111,0
DA:115,0
DA:116,0
DA:117,0
DA:127,0
DA:103,0
DA:111,0
DA:115,0
DA:116,0
DA:117,0
DA:127,0
DA:132,0
DA:145,0
DA:150,0
DA:132,0
DA:145,0
DA:150,0
DA:132,0
DA:145,0
DA:150,0
DA:132,0
DA:145,0
DA:150,0
DA:154,0
DA:155,0
DA:154,0
DA:155,0
DA:154,0
DA:155,0
DA:160,0
DA:162,0
DA:166,0
DA:168,0
DA:197,0
DA:200,0
DA:197,0
DA:200,0
DA:197,0
DA:200,0
DA:197,0
DA:200,0
end_of_record
SF:/usr/include/c++/11/bits/move.h
FN:49,_ZSt11__addressofISt6vectorIhSaIhEEEPT_RS3_
FNDA:0,_ZSt11__addressofISt6vectorIhSaIhEEEPT_RS3_
FN:49,_ZSt11__addressofIcEPT_RS0_
FNDA:0,_ZSt11__addressofIcEPT_RS0_
FN:49,_ZSt11__addressofISt5mutexEPT_RS1_
FNDA:0,_ZSt11__addressofISt5mutexEPT_RS1_
FN:77,_ZSt7forwardIPKhEOT_RNSt16remove_referenceIS2_E4typeE
FNDA:0,_ZSt7forwardIPKhEOT_RNSt16remove_referenceIS2_E4typeE
FN:77,_ZSt7forwardIRPKhEOT_RNSt16remove_referenceIS3_E4typeE
FNDA:0,_ZSt7forwardIRPKhEOT_RNSt16remove_referenceIS3_E4typeE
FN:104,_ZSt4moveIRNSt11_Deque_baseISt6vectorIhSaIhEESaIS3_EE16_Deque_impl_dataEEONSt16remove_referenceIT_E4typeEOS9_
FNDA:0,_ZSt4moveIRNSt11_Deque_baseISt6vectorIhSaIhEESaIS3_EE16_Deque_impl_dataEEONSt16remove_referenceIT_E4typeEOS9_
FN:104,_ZSt4moveIRZN9WaitQueueINSt6chrono8durationIlSt5ratioILl1ELl1000000EEEESt6vectorIhSaIhEEE4waitIZNS9_18wait_for_not_emptyERKS5_RSt11unique_lockISt5mutexEEUlvE_EEiSC_SG_RSt18condition_variableT_EUlvE_EONSt16remove_referenceISK_E4typeEOSK_
FNDA:0,_ZSt4moveIRZN9WaitQueueINSt6chrono8durationIlSt5ratioILl1ELl1000000EEEESt6vectorIhSaIhEEE4waitIZNS9_18wait_for_not_emptyERKS5_RSt11unique_lockISt5mutexEEUlvE_EEiSC_SG_RSt18condition_variableT_EUlvE_EONSt16remove_referenceISK_E4typeEOSK_
FN:104,_ZSt4moveIRZN9WaitQueueINSt6chrono8durationIlSt5ratioILl1ELl1000000EEEESt6vectorIhSaIhEEE4waitIZNS9_12wait_for_hwmElRKS5_RSt11unique_lockISt5mutexEEUlvE_EEiSC_SG_RSt18condition_variableT_EUlvE_EONSt16remove_referenceISK_E4typeEOSK_
FNDA:0,_ZSt4moveIRZN9WaitQueueINSt6chrono8durationIlSt5ratioILl1ELl1000000EEEESt6vectorIhSaIhEEE4waitIZNS9_12wait_for_hwmElRKS5_RSt11unique_lockISt5mutexEEUlvE_EEiSC_SG_RSt18condition_variableT_EUlvE_EONSt16remove_referenceISK_E4typeEOSK_
FN:196,_ZSt4swapINSt11_Deque_baseISt6vectorIhSaIhEESaIS3_EE16_Deque_impl_dataEENSt9enable_ifIXsrSt6__and_IJSt6__not_ISt15__is_tuple_likeIT_EESt21is_move_constructibleISB_ESt18is_move_assignableISB_EEE5valueEvE4typeERSB_SL_
FNDA:0,_ZSt4swapINSt11_Deque_baseISt6vectorIhSaIhEESaIS3_EE16_Deque_impl_dataEENSt9enable_ifIXsrSt6__and_IJSt6__not_ISt15__is_tuple_likeIT_EESt21is_move_constructibleISB_ESt18is_move_assignableISB_EEE5valueEvE4typeERSB_SL_
DA:49,0
DA:50,0
DA:49,0
DA:50,0
DA:49,0
DA:50,0
DA:77,0
DA:78,0
DA:77,0
DA:78,0
DA:104,0
DA:105,0
DA:104,0
DA:105,0
DA:104,0
DA:105,0
DA:196,0
DA:204,0
DA:205,0
DA:206,0
DA:207,0
end_of_record
SF:/usr/include/c++/11/bits/stl_queue.h
FN:166,_ZNSt5queueISt6vectorIhSaIhEESt5dequeIS2_SaIS2_EEEC2IS5_vEEv
FNDA:0,_ZNSt5queueISt6vectorIhSaIhEESt5dequeIS2_SaIS2_EEEC2IS5_vEEv
FN:203,_ZNKSt5queueISt6vectorIhSaIhEESt5dequeIS2_SaIS2_EEE5emptyEv
FNDA:0,_ZNKSt5queueISt6vectorIhSaIhEESt5dequeIS2_SaIS2_EEE5emptyEv
FN:216,_ZNSt5queueISt6vectorIhSaIhEESt5dequeIS2_SaIS2_EEE5frontEv
FNDA:0,_ZNSt5queueISt6vectorIhSaIhEESt5dequeIS2_SaIS2_EEE5frontEv
FN:281,_ZNSt5queueISt6vectorIhSaIhEESt5dequeIS2_SaIS2_EEE7emplaceIJRPKhS9_EEEvDpOT_
FNDA:0,_ZNSt5queueISt6vectorIhSaIhEESt5dequeIS2_SaIS2_EEE7emplaceIJRPKhS9_EEEvDpOT_
FN:298,_ZNSt5queueISt6vectorIhSaIhEESt5dequeIS2_SaIS2_EEE3popEv
FNDA:0,_ZNSt5queueISt6vectorIhSaIhEESt5dequeIS2_SaIS2_EEE3popEv
FN:306,_ZNSt5queueISt6vectorIhSaIhEESt5dequeIS2_SaIS2_EEE4swapERS6_
FNDA:0,_ZNSt5queueISt6vectorIhSaIhEESt5dequeIS2_SaIS2_EEE4swapERS6_
FN:405,_ZSt4swapISt6vectorIhSaIhEESt5dequeIS2_SaIS2_EEENSt9enable_ifIXsrSt14__is_swappableIT0_E5valueEvE4typeERSt5queueIT_S8_ESF_
FNDA:0,_ZSt4swapISt6vectorIhSaIhEESt5dequeIS2_SaIS2_EEENSt9enable_ifIXsrSt14__is_swappableIT0_E5valueEvE4typeERSt5queueIT_S8_ESF_
DA:166,0
DA:167,0
DA:203,0
DA:204,0
DA:216,0
DA:219,0
DA:281,0
DA:282,0
DA:298,0
DA:301,0
DA:302,0
DA:306,0
DA:314,0
DA:315,0
DA:405,0
DA:407,0
end_of_record
SF:/usr/include/c++/11/bits/stl_iterator_base_types.h
FN:238,_ZSt19__iterator_categoryIPKhENSt15iterator_traitsIT_E17iterator_categoryERKS3_
FNDA:0,_ZSt19__iterator_categoryIPKhENSt15iterator_traitsIT_E17iterator_categoryERKS3_
FN:238,_ZSt19__iterator_categoryIPcENSt15iterator_traitsIT_E17iterator_categoryERKS2_
FNDA:0,_ZSt19__iterator_categoryIPcENSt15iterator_traitsIT_E17iterator_categoryERKS2_
DA:238,0
DA:239,0
DA:238,0
DA:239,0
end_of_record
SF:/usr/include/c++/11/bits/stl_algobase.h
FN:230,_ZSt3minImERKT_S2_S2_
FNDA:0,_ZSt3minImERKT_S2_S2_
FN:254,_ZSt3maxImERKT_S2_S2_
FNDA:0,_ZSt3maxImERKT_S2_S2_
FN:313,_ZSt12__niter_baseIPhET_S1_
FNDA:0,_ZSt12__niter_baseIPhET_S1_
FN:313,_ZSt12__niter_baseIPKhET_S2_
FNDA:0,_ZSt12__niter_baseIPKhET_S2_
FN:313,_ZSt12__niter_baseIPPSt6vectorIhSaIhEEET_S5_
FNDA:0,_ZSt12__niter_baseIPPSt6vectorIhSaIhEEET_S5_
FN:335,_ZSt12__niter_wrapIPhET_RKS1_S1_
FNDA:0,_ZSt12__niter_wrapIPhET_RKS1_S1_
FN:335,_ZSt12__niter_wrapIPPSt6vectorIhSaIhEEET_RKS5_S5_
FNDA:0,_ZSt12__niter_wrapIPPSt6vectorIhSaIhEEET_RKS5_S5_
FN:420,_ZNSt11__copy_moveILb0ELb1ESt26random_access_iterator_tagE8__copy_mIPSt6vectorIhSaIhEEEEPT_PKS7_SA_S8_
FNDA:0,_ZNSt11__copy_moveILb0ELb1ESt26random_access_iterator_tagE8__copy_mIPSt6vectorIhSaIhEEEEPT_PKS7_SA_S8_
FN:420,_ZNSt11__copy_moveILb0ELb1ESt26random_access_iterator_tagE8__copy_mIhEEPT_PKS3_S6_S4_
FNDA:0,_ZNSt11__copy_moveILb0ELb1ESt26random_access_iterator_tagE8__copy_mIhEEPT_PKS3_S6_S4_
FN:486,_ZSt14__copy_move_a2ILb0EPKhPhET1_T0_S4_S3_
FNDA:0,_ZSt14__copy_move_a2ILb0EPKhPhET1_T0_S4_S3_
FN:486,_ZSt14__copy_move_a2ILb0EPPSt6vectorIhSaIhEES4_ET1_T0_S6_S5_
FNDA:0,_ZSt14__copy_move_a2ILb0EPPSt6vectorIhSaIhEES4_ET1_T0_S6_S5_
FN:521,_ZSt14__copy_move_a1ILb0EPPSt6vectorIhSaIhEES4_ET1_T0_S6_S5_
FNDA:0,_ZSt14__copy_move_a1ILb0EPPSt6vectorIhSaIhEES4_ET1_T0_S6_S5_
FN:521,_ZSt14__copy_move_a1ILb0EPKhPhET1_T0_S4_S3_
FNDA:0,_ZSt14__copy_move_a1ILb0EPKhPhET1_T0_S4_S3_
FN:527,_ZSt13__copy_move_aILb0EPKhPhET1_T0_S4_S3_
FNDA:0,_ZSt13__copy_move_aILb0EPKhPhET1_T0_S4_S3_
FN:527,_ZSt13__copy_move_aILb0EPPSt6vectorIhSaIhEES4_ET1_T0_S6_S5_
FNDA:0,_ZSt13__copy_move_aILb0EPPSt6vectorIhSaIhEES4_ET1_T0_S6_S5_
FN:611,_ZSt4copyIPKhPhET0_T_S4_S3_
FNDA:0,_ZSt4copyIPKhPhET0_T_S4_S3_
FN:611,_ZSt4copyIPPSt6vectorIhSaIhEES4_ET0_T_S6_S5_
FNDA:0,_ZSt4copyIPPSt6vectorIhSaIhEES4_ET0_T_S6_S5_
FN:731,_ZNSt20__copy_move_backwardILb0ELb1ESt26random_access_iterator_tagE13__copy_move_bIPSt6vectorIhSaIhEEEEPT_PKS7_SA_S8_
FNDA:0,_ZNSt20__copy_move_backwardILb0ELb1ESt26random_access_iterator_tagE13__copy_move_bIPSt6vectorIhSaIhEEEEPT_PKS7_SA_S8_
FN:750,_ZSt23__copy_move_backward_a2ILb0EPPSt6vectorIhSaIhEES4_ET1_T0_S6_S5_
FNDA:0,_ZSt23__copy_move_backward_a2ILb0EPPSt6vectorIhSaIhEES4_ET1_T0_S6_S5_
FN:768,_ZSt23__copy_move_backward_a1ILb0EPPSt6vectorIhSaIhEES4_ET1_T0_S6_S5_
FNDA:0,_ZSt23__copy_move_backward_a1ILb0EPPSt6vectorIhSaIhEES4_ET1_T0_S6_S5_
FN:796,_ZSt22__copy_move_backward_aILb0EPPSt6vectorIhSaIhEES4_ET1_T0_S6_S5_
FNDA:0,_ZSt22__copy_move_backward_aILb0EPPSt6vectorIhSaIhEES4_ET1_T0_S6_S5_
FN:848,_ZSt13copy_backwardIPPSt6vectorIhSaIhEES4_ET0_T_S6_S5_
FNDA:0,_ZSt13copy_backwardIPPSt6vectorIhSaIhEES4_ET0_T_S6_S5_
FN:932,_ZSt9__fill_a1IcEN9__gnu_cxx11__enable_ifIXsrSt9__is_byteIT_E7__valueEvE6__typeEPS3_S7_RKS3_
FNDA:0,_ZSt9__fill_a1IcEN9__gnu_cxx11__enable_ifIXsrSt9__is_byteIT_E7__valueEvE6__typeEPS3_S7_RKS3_
FN:968,_ZSt8__fill_aIPccEvT_S1_RKT0_
FNDA:0,_ZSt8__fill_aIPccEvT_S1_RKT0_
FN:1010,_ZSt17__size_to_integerm
FNDA:0,_ZSt17__size_to_integerm
FN:1109,_ZSt10__fill_n_aIPcmcET_S1_T0_RKT1_St26random_access_iterator_tag
FNDA:0,_ZSt10__fill_n_aIPcmcET_S1_T0_RKT1_St26random_access_iterator_tag
FN:1144,_ZSt6fill_nIPcmcET_S1_T0_RKT1_
FNDA:0,_ZSt6fill_nIPcmcET_S1_T0_RKT1_
DA:230,0
DA:235,0
DA:236,0
DA:237,0
DA:254,0
DA:259,0
DA:260,0
DA:261,0
DA:313,0
DA:315,0
DA:313,0
DA:315,0
DA:313,0
DA:315,0
DA:335,0
DA:336,0
DA:335,0
DA:336,0
DA:420,0
DA:429,0
DA:430,0
DA:431,0
DA:432,0
DA:420,0
DA:429,0
DA:430,0
DA:431,0
DA:432,0
DA:486,0
DA:495,0
DA:486,0
DA:495,0
DA:521,0
DA:522,0
DA:521,0
DA:522,0
DA:527,0
DA:529,0
DA:532,0
DA:527,0
DA:529,0
DA:532,0
DA:611,0
DA:620,0
DA:611,0
DA:620,0
DA:731,0
DA:740,0
DA:741,0
DA:742,0
DA:743,0
DA:750,0
DA:760,0
DA:762,0
DA:768,0
DA:769,0
DA:796,0
DA:798,0
DA:801,0
DA:848,0
DA:859,0
DA:932,0
DA:934,0
DA:943,0
DA:944,0
DA:945,0
DA:968,0
DA:969,0
DA:1010,0
DA:1109,0
DA:1115,0
DA:1116,0
DA:1120,0
DA:1121,0
DA:1144,0
DA:1149,0
DA:1150,0
end_of_record
SF:/usr/include/c++/11/bits/stl_uninitialized.h
FN:108,_ZNSt20__uninitialized_copyILb1EE13__uninit_copyIPKhPhEET0_T_S6_S5_
FNDA:0,_ZNSt20__uninitialized_copyILb1EE13__uninit_copyIPKhPhEET0_T_S6_S5_
FN:126,_ZSt18uninitialized_copyIPKhPhET0_T_S4_S3_
FNDA:0,_ZSt18uninitialized_copyIPKhPhET0_T_S4_S3_
FN:331,_ZSt22__uninitialized_copy_aIPKhPhhET0_T_S4_S3_RSaIT1_E
FNDA:0,_ZSt22__uninitialized_copy_aIPKhPhhET0_T_S4_S3_RSaIT1_E
FN:595,_ZNSt27__uninitialized_default_n_1ILb1EE18__uninit_default_nIPcmEET_S3_T0_
FNDA:0,_ZNSt27__uninitialized_default_n_1ILb1EE18__uninit_default_nIPcmEET_S3_T0_
FN:630,_ZSt25__uninitialized_default_nIPcmET_S1_T0_
FNDA:0,_ZSt25__uninitialized_default_nIPcmET_S1_T0_
FN:702,_ZSt27__uninitialized_default_n_aIPcmcET_S1_T0_RSaIT1_E
FNDA:0,_ZSt27__uninitialized_default_n_aIPcmcET_S1_T0_RSaIT1_E
DA:108,0
DA:110,0
DA:126,0
DA:145,0
DA:151,0
DA:331,0
DA:333,0
DA:595,0
DA:597,0
DA:600,0
DA:601,0
DA:602,0
DA:603,0
DA:605,0
DA:630,0
DA:635,0
DA:640,0
DA:702,0
DA:704,0
end_of_record
SF:/usr/include/c++/11/bits/cpp_type_traits.h
FN:560,_ZSt12__miter_baseIPKhET_S2_
FNDA:0,_ZSt12__miter_baseIPKhET_S2_
FN:560,_ZSt12__miter_baseIPPSt6vectorIhSaIhEEET_S5_
FNDA:0,_ZSt12__miter_baseIPPSt6vectorIhSaIhEEET_S5_
DA:560,0
DA:561,0
DA:560,0
DA:561,0
end_of_record
SF:/usr/include/c++/11/ext/alloc_traits.h
FN:100,_ZN9__gnu_cxx14__alloc_traitsISaISt6vectorIhSaIhEEES3_E10_S_on_swapERS4_S6_
FNDA:0,_ZN9__gnu_cxx14__alloc_traitsISaISt6vectorIhSaIhEEES3_E10_S_on_swapERS4_S6_
DA:100,0
DA:101,0
end_of_record
SF:/usr/include/c++/11/bits/stl_iterator_base_funcs.h
FN:98,_ZSt10__distanceIPKhENSt15iterator_traitsIT_E15difference_typeES3_S3_St26random_access_iterator_tag
FNDA:0,_ZSt10__distanceIPKhENSt15iterator_traitsIT_E15difference_typeES3_S3_St26random_access_iterator_tag
FN:138,_ZSt8distanceIPKhENSt15iterator_traitsIT_E15difference_typeES3_S3_
FNDA:0,_ZSt8distanceIPKhENSt15iterator_traitsIT_E15difference_typeES3_S3_
DA:98,0
DA:104,0
DA:138,0
DA:141,0
DA:142,0
end_of_record
SF:/usr/include/c++/11/bits/allocator.h
FN:168,_ZNSaISt6vectorIhSaIhEEEC2Ev
FNDA:0,_ZNSaISt6vectorIhSaIhEEEC2Ev
FN:168,_ZNSaIhEC2Ev
FNDA:0,_ZNSaIhEC2Ev
FN:171,_ZNSaIhEC2ERKS_
FNDA:0,_ZNSaIhEC2ERKS_
FN:181,_ZNSaIPSt6vectorIhSaIhEEEC2IS1_EERKSaIT_E
FNDA:0,_ZNSaIPSt6vectorIhSaIhEEEC2IS1_EERKSaIT_E
FN:186,_ZNSaIhED2Ev
FNDA:0,_ZNSaIhED2Ev
FN:186,_ZNSaIPSt6vectorIhSaIhEEED2Ev
FNDA:0,_ZNSaIPSt6vectorIhSaIhEEED2Ev
FN:186,_ZNSaISt6vectorIhSaIhEEED2Ev
FNDA:0,_ZNSaISt6vectorIhSaIhEEED2Ev
DA:168,0
DA:168,0
DA:171,0
DA:172,0
DA:181,0
DA:186,0
DA:186,0
DA:186,0
end_of_record
SF:/usr/include/c++/11/bits/atomic_base.h
FN:104,_ZStanSt12memory_orderSt23__memory_order_modifier
FNDA:0,_ZStanSt12memory_orderSt23__memory_order_modifier
FN:718,_ZNSt13__atomic_baseIPFiP8_IO_FILEPKcP13__va_list_tagEEaSES7_
FNDA:0,_ZNSt13__atomic_baseIPFiP8_IO_FILEPKcP13__va_list_tagEEaSES7_
DA:104,0
DA:106,0
DA:718,0
DA:721,0
DA:808,0
DA:814,0
DA:815,0
end_of_record
SF:/usr/include/c++/11/bits/stl_deque.h
FN:96,_ZSt16__deque_buf_sizem
FNDA:0,_ZSt16__deque_buf_sizem
FN:131,_ZNSt15_Deque_iteratorISt6vectorIhSaIhEERS2_PS2_E14_S_buffer_sizeEv
FNDA:0,_ZNSt15_Deque_iteratorISt6vectorIhSaIhEERS2_PS2_E14_S_buffer_sizeEv
FN:151,_ZNSt15_Deque_iteratorISt6vectorIhSaIhEERS2_PS2_EC2Ev
FNDA:0,_ZNSt15_Deque_iteratorISt6vectorIhSaIhEERS2_PS2_EC2Ev
FN:168,_ZNSt15_Deque_iteratorISt6vectorIhSaIhEERS2_PS2_EC2ERKS5_
FNDA:0,_ZNSt15_Deque_iteratorISt6vectorIhSaIhEERS2_PS2_EC2ERKS5_
FN:180,_ZNKSt15_Deque_iteratorISt6vectorIhSaIhEERS2_PS2_EdeEv
FNDA:0,_ZNKSt15_Deque_iteratorISt6vectorIhSaIhEERS2_PS2_EdeEv
FN:260,_ZNSt15_Deque_iteratorISt6vectorIhSaIhEERS2_PS2_E11_M_set_nodeEPS4_
FNDA:0,_ZNSt15_Deque_iteratorISt6vectorIhSaIhEERS2_PS2_E11_M_set_nodeEPS4_
FN:268,_ZSteqRKSt15_Deque_iteratorISt6vectorIhSaIhEERS2_PS2_ES7_
FNDA:0,_ZSteqRKSt15_Deque_iteratorISt6vectorIhSaIhEERS2_PS2_ES7_
FN:353,_ZStmiRKSt15_Deque_iteratorISt6vectorIhSaIhEERS2_PS2_ES7_
FNDA:0,_ZStmiRKSt15_Deque_iteratorISt6vectorIhSaIhEERS2_PS2_ES7_
FN:436,_ZNSt11_Deque_baseISt6vectorIhSaIhEESaIS2_EEC2Ev
FNDA:0,_ZNSt11_Deque_baseISt6vectorIhSaIhEESaIS2_EEC2Ev
FN:494,_ZNSt11_Deque_baseISt6vectorIhSaIhEESaIS2_EE16_Deque_impl_dataC2Ev
FNDA:0,_ZNSt11_Deque_baseISt6vectorIhSaIhEESaIS2_EE16_Deque_impl_dataC2Ev
FN:499,_ZNSt11_Deque_baseISt6vectorIhSaIhEESaIS2_EE16_Deque_impl_dataC2ERKS5_
FNDA:0,_ZNSt11_Deque_baseISt6vectorIhSaIhEESaIS2_EE16_Deque_impl_dataC2ERKS5_
FN:503,_ZNSt11_Deque_baseISt6vectorIhSaIhEESaIS2_EE16_Deque_impl_dataC2EOS5_
FNDA:0,_ZNSt11_Deque_baseISt6vectorIhSaIhEESaIS2_EE16_Deque_impl_dataC2EOS5_
FN:509,_ZNSt11_Deque_baseISt6vectorIhSaIhEESaIS2_EE16_Deque_impl_data12_M_swap_dataERS5_
FNDA:0,_ZNSt11_Deque_baseISt6vectorIhSaIhEESaIS2_EE16_Deque_impl_data12_M_swap_dataERS5_
FN:523,_ZNSt11_Deque_baseISt6vectorIhSaIhEESaIS2_EE11_Deque_implC2Ev
FNDA:0,_ZNSt11_Deque_baseISt6vectorIhSaIhEESaIS2_EE11_Deque_implC2Ev
FN:546,_ZNSt11_Deque_baseISt6vectorIhSaIhEESaIS2_EE19_M_get_Tp_allocatorEv
FNDA:0,_ZNSt11_Deque_baseISt6vectorIhSaIhEESaIS2_EE19_M_get_Tp_allocatorEv
FN:550,_ZNKSt11_Deque_baseISt6vectorIhSaIhEESaIS2_EE19_M_get_Tp_allocatorEv
FNDA:0,_ZNKSt11_Deque_baseISt6vectorIhSaIhEESaIS2_EE19_M_get_Tp_allocatorEv
FN:554,_ZNKSt11_Deque_baseISt6vectorIhSaIhEESaIS2_EE20_M_get_map_allocatorEv
FNDA:0,_ZNKSt11_Deque_baseISt6vectorIhSaIhEESaIS2_EE20_M_get_map_allocatorEv
FN:558,_ZNSt11_Deque_baseISt6vectorIhSaIhEESaIS2_EE16_M_allocate_nodeEv
FNDA:0,_ZNSt11_Deque_baseISt6vectorIhSaIhEESaIS2_EE16_M_allocate_nodeEv
FN:565,_ZNSt11_Deque_baseISt6vectorIhSaIhEESaIS2_EE18_M_deallocate_nodeEPS2_
FNDA:0,_ZNSt11_Deque_baseISt6vectorIhSaIhEESaIS2_EE18_M_deallocate_nodeEPS2_
FN:572,_ZNSt11_Deque_baseISt6vectorIhSaIhEESaIS2_EE15_M_allocate_mapEm
FNDA:0,_ZNSt11_Deque_baseISt6vectorIhSaIhEESaIS2_EE15_M_allocate_mapEm
FN:579,_ZNSt11_Deque_baseISt6vectorIhSaIhEESaIS2_EE17_M_deallocate_mapEPPS2_m
FNDA:0,_ZNSt11_Deque_baseISt6vectorIhSaIhEESaIS2_EE17_M_deallocate_mapEPPS2_m
FN:595,_ZNSt11_Deque_baseISt6vectorIhSaIhEESaIS2_EED2Ev
FNDA:0,_ZNSt11_Deque_baseISt6vectorIhSaIhEESaIS2_EED2Ev
FN:616,_ZNSt11_Deque_baseISt6vectorIhSaIhEESaIS2_EE17_M_initialize_mapEm
FNDA:0,_ZNSt11_Deque_baseISt6vectorIhSaIhEESaIS2_EE17_M_initialize_mapEm
FN:655,_ZNSt11_Deque_baseISt6vectorIhSaIhEESaIS2_EE15_M_create_nodesEPPS2_S6_
FNDA:0,_ZNSt11_Deque_baseISt6vectorIhSaIhEESaIS2_EE15_M_create_nodesEPPS2_S6_
FN:673,_ZNSt11_Deque_baseISt6vectorIhSaIhEESaIS2_EE16_M_destroy_nodesEPPS2_S6_
FNDA:0,_ZNSt11_Deque_baseISt6vectorIhSaIhEESaIS2_EE16_M_destroy_nodesEPPS2_S6_
FN:806,_ZNSt5dequeISt6vectorIhSaIhEESaIS2_EE14_S_buffer_sizeEv
FNDA:0,_ZNSt5dequeISt6vectorIhSaIhEESaIS2_EE14_S_buffer_sizeEv
FN:833,_ZNSt5dequeISt6vectorIhSaIhEESaIS2_EEC2Ev
FNDA:0,_ZNSt5dequeISt6vectorIhSaIhEESaIS2_EEC2Ev
FN:1005,_ZNSt5dequeISt6vectorIhSaIhEESaIS2_EED2Ev
FNDA:0,_ZNSt5dequeISt6vectorIhSaIhEESaIS2_EED2Ev
FN:1127,_ZNSt5dequeISt6vectorIhSaIhEESaIS2_EE5beginEv
FNDA:0,_ZNSt5dequeISt6vectorIhSaIhEESaIS2_EE5beginEv
FN:1144,_ZNSt5dequeISt6vectorIhSaIhEESaIS2_EE3endEv
FNDA:0,_ZNSt5dequeISt6vectorIhSaIhEESaIS2_EE3endEv
FN:1232,_ZNKSt5dequeISt6vectorIhSaIhEESaIS2_EE4sizeEv
FNDA:0,_ZNKSt5dequeISt6vectorIhSaIhEESaIS2_EE4sizeEv
FN:1237,_ZNKSt5dequeISt6vectorIhSaIhEESaIS2_EE8max_sizeEv
FNDA:0,_ZNKSt5dequeISt6vectorIhSaIhEESaIS2_EE8max_sizeEv
FN:1310,_ZNKSt5dequeISt6vectorIhSaIhEESaIS2_EE5emptyEv
FNDA:0,_ZNKSt5dequeISt6vectorIhSaIhEESaIS2_EE5emptyEv
FN:1404,_ZNSt5dequeISt6vectorIhSaIhEESaIS2_EE5frontEv
FNDA:0,_ZNSt5dequeISt6vectorIhSaIhEESaIS2_EE5frontEv
FN:1531,_ZNSt5dequeISt6vectorIhSaIhEESaIS2_EE9pop_frontEv
FNDA:0,_ZNSt5dequeISt6vectorIhSaIhEESaIS2_EE9pop_frontEv
FN:1774,_ZNSt5dequeISt6vectorIhSaIhEESaIS2_EE4swapERS4_
FNDA:0,_ZNSt5dequeISt6vectorIhSaIhEESaIS2_EE4swapERS4_
FN:1833,_ZNSt5dequeISt6vectorIhSaIhEESaIS2_EE11_S_max_sizeERKS3_
FNDA:0,_ZNSt5dequeISt6vectorIhSaIhEESaIS2_EE11_S_max_sizeERKS3_
FN:2044,_ZNSt5dequeISt6vectorIhSaIhEESaIS2_EE15_M_destroy_dataESt15_Deque_iteratorIS2_RS2_PS2_ES8_RKS3_
FNDA:0,_ZNSt5dequeISt6vectorIhSaIhEESaIS2_EE15_M_destroy_dataESt15_Deque_iteratorIS2_RS2_PS2_ES8_RKS3_
FN:2125,_ZNSt5dequeISt6vectorIhSaIhEESaIS2_EE22_M_reserve_map_at_backEm
FNDA:0,_ZNSt5dequeISt6vectorIhSaIhEESaIS2_EE22_M_reserve_map_at_backEm
FN:2316,_ZSt4swapISt6vectorIhSaIhEESaIS2_EEvRSt5dequeIT_T0_ES8_
FNDA:0,_ZSt4swapISt6vectorIhSaIhEESaIS2_EEvRSt5dequeIT_T0_ES8_
DA:96,0
DA:98,0
DA:131,0
DA:132,0
DA:151,0
DA:152,0
DA:168,0
DA:169,0
DA:170,0
DA:180,0
DA:181,0
DA:260,0
DA:262,0
DA:263,0
DA:264,0
DA:265,0
DA:268,0
DA:269,0
DA:353,0
DA:355,0
DA:356,0
DA:357,0
DA:358,0
DA:436,0
DA:437,0
DA:438,0
DA:494,0
DA:495,0
DA:496,0
DA:499,0
DA:503,0
DA:504,0
DA:505,0
DA:509,0
DA:513,0
DA:514,0
DA:523,0
DA:525,0
DA:526,0
DA:546,0
DA:547,0
DA:550,0
DA:551,0
DA:554,0
DA:555,0
DA:558,0
DA:561,0
DA:565,0
DA:568,0
DA:569,0
DA:572,0
DA:574,0
DA:575,0
DA:576,0
DA:579,0
DA:581,0
DA:582,0
DA:583,0
DA:595,0
DA:598,0
DA:600,0
DA:601,0
DA:602,0
DA:604,0
DA:616,0
DA:619,0
DA:622,0
DA:623,0
DA:624,0
DA:631,0
DA:632,0
DA:633,0
DA:636,0
DA:637,0
DA:639,0
DA:640,0
DA:641,0
DA:642,0
DA:645,0
DA:646,0
DA:647,0
DA:648,0
DA:649,0
DA:650,0
DA:651,0
DA:655,0
DA:661,0
DA:662,0
DA:664,0
DA:666,0
DA:667,0
DA:669,0
DA:673,0
DA:677,0
DA:678,0
DA:679,0
DA:806,0
DA:807,0
DA:833,0
DA:1005,0
DA:1006,0
DA:1127,0
DA:1128,0
DA:1144,0
DA:1145,0
DA:1232,0
DA:1233,0
DA:1237,0
DA:1238,0
DA:1310,0
DA:1311,0
DA:1404,0
DA:1407,0
DA:1531,0
DA:1534,0
DA:1535,0
DA:1537,0
DA:1539,0
DA:1542,0
DA:1543,0
DA:1774,0
DA:1777,0
DA:1780,0
DA:1781,0
DA:1782,0
DA:1783,0
DA:1833,0
DA:1835,0
DA:1836,0
DA:1837,0
DA:2044,0
DA:2048,0
DA:2049,0
DA:2125,0
DA:2127,0
DA:2128,0
DA:2129,0
DA:2130,0
DA:2316,0
DA:2318,0
end_of_record
SF:/usr/include/c++/11/new
FN:174,_ZnwmPv
FNDA:0,_ZnwmPv
FN:180,_ZdlPvS_
FNDA:0,_ZdlPvS_
DA:174,0
DA:175,0
DA:180,0
end_of_record
SF:/usr/include/c++/11/bits/stl_vector.h
FN:97,_ZNSt12_Vector_baseIhSaIhEE17_Vector_impl_dataC2Ev
FNDA:0,_ZNSt12_Vector_baseIhSaIhEE17_Vector_impl_dataC2Ev
FN:97,_ZNSt12_Vector_baseIcSaIcEE17_Vector_impl_dataC2Ev
FNDA:0,_ZNSt12_Vector_baseIcSaIcEE17_Vector_impl_dataC2Ev
FN:136,_ZNSt12_Vector_baseIhSaIhEE12_Vector_implC2ERKS0_
FNDA:0,_ZNSt12_Vector_baseIhSaIhEE12_Vector_implC2ERKS0_
FN:136,_ZNSt12_Vector_baseIcSaIcEE12_Vector_implC2ERKS0_
FNDA:0,_ZNSt12_Vector_baseIcSaIcEE12_Vector_implC2ERKS0_
FN:276,_ZNSt12_Vector_baseIhSaIhEE19_M_get_Tp_allocatorEv
FNDA:0,_ZNSt12_Vector_baseIhSaIhEE19_M_get_Tp_allocatorEv
FN:276,_ZNSt12_Vector_baseIcSaIcEE19_M_get_Tp_allocatorEv
FNDA:0,_ZNSt12_Vector_baseIcSaIcEE19_M_get_Tp_allocatorEv
FN:293,_ZNSt12_Vector_baseIhSaIhEEC2ERKS0_
FNDA:0,_ZNSt12_Vector_baseIhSaIhEEC2ERKS0_
FN:303,_ZNSt12_Vector_baseIcSaIcEEC2EmRKS0_
FNDA:0,_ZNSt12_Vector_baseIcSaIcEEC2EmRKS0_
FN:333,_ZNSt12_Vector_baseIcSaIcEED2Ev
FNDA:0,_ZNSt12_Vector_baseIcSaIcEED2Ev
FN:333,_ZNSt12_Vector_baseIhSaIhEED2Ev
FNDA:0,_ZNSt12_Vector_baseIhSaIhEED2Ev
FN:343,_ZNSt12_Vector_baseIhSaIhEE11_M_allocateEm
FNDA:0,_ZNSt12_Vector_baseIhSaIhEE11_M_allocateEm
FN:343,_ZNSt12_Vector_baseIcSaIcEE11_M_allocateEm
FNDA:0,_ZNSt12_Vector_baseIcSaIcEE11_M_allocateEm
FN:350,_ZNSt12_Vector_baseIhSaIhEE13_M_deallocateEPhm
FNDA:0,_ZNSt12_Vector_baseIhSaIhEE13_M_deallocateEPhm
FN:350,_ZNSt12_Vector_baseIcSaIcEE13_M_deallocateEPcm
FNDA:0,_ZNSt12_Vector_baseIcSaIcEE13_M_deallocateEPcm
FN:359,_ZNSt12_Vector_baseIcSaIcEE17_M_create_storageEm
FNDA:0,_ZNSt12_Vector_baseIcSaIcEE17_M_create_storageEm
FN:510,_ZNSt6vectorIcSaIcEEC2EmRKS0_
FNDA:0,_ZNSt6vectorIcSaIcEEC2EmRKS0_
FN:653,_ZNSt6vectorIhSaIhEEC2IPKhvEET_S5_RKS0_
FNDA:0,_ZNSt6vectorIhSaIhEEC2IPKhvEET_S5_RKS0_
FN:678,_ZNSt6vectorIhSaIhEED2Ev
FNDA:0,_ZNSt6vectorIhSaIhEED2Ev
FN:678,_ZNSt6vectorIcSaIcEED2Ev
FNDA:0,_ZNSt6vectorIcSaIcEED2Ev
FN:918,_ZNKSt6vectorIhSaIhEE4sizeEv
FNDA:0,_ZNKSt6vectorIhSaIhEE4sizeEv
FN:1168,_ZNSt6vectorIcSaIcEE4dataEv
FNDA:0,_ZNSt6vectorIcSaIcEE4dataEv
FN:1168,_ZNSt6vectorIhSaIhEE4dataEv
FNDA:0,_ZNSt6vectorIhSaIhEE4dataEv
FN:1577,_ZNSt6vectorIhSaIhEE19_M_range_initializeIPKhEEvT_S5_St20forward_iterator_tag
FNDA:0,_ZNSt6vectorIhSaIhEE19_M_range_initializeIPKhEEvT_S5_St20forward_iterator_tag
FN:1603,_ZNSt6vectorIcSaIcEE21_M_default_initializeEm
FNDA:0,_ZNSt6vectorIcSaIcEE21_M_default_initializeEm
FN:1767,_ZNSt6vectorIhSaIhEE17_S_check_init_lenEmRKS0_
FNDA:0,_ZNSt6vectorIhSaIhEE17_S_check_init_lenEmRKS0_
FN:1767,_ZNSt6vectorIcSaIcEE17_S_check_init_lenEmRKS0_
FNDA:0,_ZNSt6vectorIcSaIcEE17_S_check_init_lenEmRKS0_
FN:1776,_ZNSt6vectorIhSaIhEE11_S_max_sizeERKS0_
FNDA:0,_ZNSt6vectorIhSaIhEE11_S_max_sizeERKS0_
FN:1776,_ZNSt6vectorIcSaIcEE11_S_max_sizeERKS0_
FNDA:0,_ZNSt6vectorIcSaIcEE11_S_max_sizeERKS0_
FN:1844,_ZNKSt6vectorIcSaIcEE11_M_data_ptrIcEEPT_S4_
FNDA:0,_ZNKSt6vectorIcSaIcEE11_M_data_ptrIcEEPT_S4_
FN:1844,_ZNKSt6vectorIhSaIhEE11_M_data_ptrIhEEPT_S4_
FNDA:0,_ZNKSt6vectorIhSaIhEE11_M_data_ptrIhEEPT_S4_
DA:97,0
DA:98,0
DA:99,0
DA:97,0
DA:98,0
DA:99,0
DA:136,0
DA:137,0
DA:138,0
DA:136,0
DA:137,0
DA:138,0
DA:276,0
DA:277,0
DA:276,0
DA:277,0
DA:293,0
DA:294,0
DA:303,0
DA:304,0
DA:305,0
DA:333,0
DA:335,0
DA:336,0
DA:337,0
DA:333,0
DA:335,0
DA:336,0
DA:337,0
DA:343,0
DA:346,0
DA:343,0
DA:346,0
DA:350,0
DA:353,0
DA:354,0
DA:355,0
DA:350,0
DA:353,0
DA:354,0
DA:355,0
DA:359,0
DA:361,0
DA:362,0
DA:363,0
DA:364,0
DA:510,0
DA:511,0
DA:512,0
DA:653,0
DA:655,0
DA:657,0
DA:658,0
DA:659,0
DA:678,0
DA:680,0
DA:681,0
DA:683,0
DA:678,0
DA:680,0
DA:681,0
DA:683,0
DA:918,0
DA:919,0
DA:1168,0
DA:1169,0
DA:1168,0
DA:1169,0
DA:1577,0
DA:1580,0
DA:1582,0
DA:1583,0
DA:1584,0
DA:1585,0
DA:1587,0
DA:1588,0
DA:1603,0
DA:1605,0
DA:1606,0
DA:1607,0
DA:1608,0
DA:1767,0
DA:1769,0
DA:1770,0
DA:1772,0
DA:1767,0
DA:1769,0
DA:1770,0
DA:1772,0
DA:1776,0
DA:1781,0
DA:1783,0
DA:1784,0
DA:1776,0
DA:1781,0
DA:1783,0
DA:1784,0
DA:1844,0
DA:1845,0
DA:1844,0
DA:1845,0
end_of_record
SF:/usr/include/c++/11/bits/unique_lock.h
FN:66,_ZNSt11unique_lockISt5mutexEC2ERS0_
FNDA:0,_ZNSt11unique_lockISt5mutexEC2ERS0_
FN:101,_ZNSt11unique_lockISt5mutexED2Ev
FNDA:0,_ZNSt11unique_lockISt5mutexED2Ev
FN:131,_ZNSt11unique_lockISt5mutexE4lockEv
FNDA:0,_ZNSt11unique_lockISt5mutexE4lockEv
FN:189,_ZNSt11unique_lockISt5mutexE6unlockEv
FNDA:0,_ZNSt11unique_lockISt5mutexE6unlockEv
FN:224,_ZNKSt11unique_lockISt5mutexE5mutexEv
FNDA:0,_ZNKSt11unique_lockISt5mutexE5mutexEv
DA:66,0
DA:67,0
DA:69,0
DA:70,0
DA:71,0
DA:101,0
DA:103,0
DA:104,0
DA:105,0
DA:131,0
DA:133,0
DA:134,0
DA:135,0
DA:136,0
DA:139,0
DA:140,0
DA:142,0
DA:189,0
DA:191,0
DA:192,0
DA:193,0
DA:195,0
DA:196,0
DA:198,0
DA:224,0
DA:225,0
end_of_record
SF:/usr/include/c++/11/bits/alloc_traits.h
FN:459,_ZNSt16allocator_traitsISaIhEE8allocateERS0_m
FNDA:0,_ZNSt16allocator_traitsISaIhEE8allocateERS0_m
FN:459,_ZNSt16allocator_traitsISaIPSt6vectorIhSaIhEEEE8allocateERS4_m
FNDA:0,_ZNSt16allocator_traitsISaIPSt6vectorIhSaIhEEEE8allocateERS4_m
FN:459,_ZNSt16allocator_traitsISaISt6vectorIhSaIhEEEE8allocateERS3_m
FNDA:0,_ZNSt16allocator_traitsISaISt6vectorIhSaIhEEEE8allocateERS3_m
FN:459,_ZNSt16allocator_traitsISaIcEE8allocateERS0_m
FNDA:0,_ZNSt16allocator_traitsISaIcEE8allocateERS0_m
FN:491,_ZNSt16allocator_traitsISaIhEE10deallocateERS0_Phm
FNDA:0,_ZNSt16allocator_traitsISaIhEE10deallocateERS0_Phm
FN:491,_ZNSt16allocator_traitsISaISt6vectorIhSaIhEEEE10deallocateERS3_PS2_m
FNDA:0,_ZNSt16allocator_traitsISaISt6vectorIhSaIhEEEE10deallocateERS3_PS2_m
FN:491,_ZNSt16allocator_traitsISaIPSt6vectorIhSaIhEEEE10deallocateERS4_PS3_m
FNDA:0,_ZNSt16allocator_traitsISaIPSt6vectorIhSaIhEEEE10deallocateERS4_PS3_m
FN:491,_ZNSt16allocator_traitsISaIcEE10deallocateERS0_Pcm
FNDA:0,_ZNSt16allocator_traitsISaIcEE10deallocateERS0_Pcm
FN:507,_ZNSt16allocator_traitsISaISt6vectorIhSaIhEEEE9constructIS2_JRPKhS7_EEEvRS3_PT_DpOT0_
FNDA:0,_ZNSt16allocator_traitsISaISt6vectorIhSaIhEEEE9constructIS2_JRPKhS7_EEEvRS3_PT_DpOT0_
FN:527,_ZNSt16allocator_traitsISaISt6vectorIhSaIhEEEE7destroyIS2_EEvRS3_PT_
FNDA:0,_ZNSt16allocator_traitsISaISt6vectorIhSaIhEEEE7destroyIS2_EEvRS3_PT_
FN:543,_ZNSt16allocator_traitsISaISt6vectorIhSaIhEEEE8max_sizeERKS3_
FNDA:0,_ZNSt16allocator_traitsISaISt6vectorIhSaIhEEEE8max_sizeERKS3_
FN:543,_ZNSt16allocator_traitsISaIhEE8max_sizeERKS0_
FNDA:0,_ZNSt16allocator_traitsISaIhEE8max_sizeERKS0_
FN:543,_ZNSt16allocator_traitsISaIcEE8max_sizeERKS0_
FNDA:0,_ZNSt16allocator_traitsISaIcEE8max_sizeERKS0_
FN:629,_ZSt18__do_alloc_on_swapISaISt6vectorIhSaIhEEEEvRT_S5_St17integral_constantIbLb0EE
FNDA:0,_ZSt18__do_alloc_on_swapISaISt6vectorIhSaIhEEEEvRT_S5_St17integral_constantIbLb0EE
FN:635,_ZSt15__alloc_on_swapISaISt6vectorIhSaIhEEEEvRT_S5_
FNDA:0,_ZSt15__alloc_on_swapISaISt6vectorIhSaIhEEEEvRT_S5_
FN:743,_ZSt8_DestroyIPhhEvT_S1_RSaIT0_E
FNDA:0,_ZSt8_DestroyIPhhEvT_S1_RSaIT0_E
FN:743,_ZSt8_DestroyIPSt6vectorIhSaIhEES2_EvT_S4_RSaIT0_E
FNDA:0,_ZSt8_DestroyIPSt6vectorIhSaIhEES2_EvT_S4_RSaIT0_E
FN:743,_ZSt8_DestroyIPccEvT_S1_RSaIT0_E
FNDA:0,_ZSt8_DestroyIPccEvT_S1_RSaIT0_E
DA:459,0
DA:460,0
DA:459,0
DA:460,0
DA:459,0
DA:460,0
DA:459,0
DA:460,0
DA:491,0
DA:492,0
DA:491,0
DA:492,0
DA:491,0
DA:492,0
DA:491,0
DA:492,0
DA:507,0
DA:512,0
DA:516,0
DA:527,0
DA:531,0
DA:535,0
DA:543,0
DA:546,0
DA:543,0
DA:546,0
DA:543,0
DA:546,0
DA:629,0
DA:630,0
DA:635,0
DA:646,0
DA:648,0
DA:743,0
DA:746,0
DA:747,0
DA:743,0
DA:746,0
DA:747,0
DA:743,0
DA:746,0
DA:747,0
end_of_record
